
vlp-firmware_atmel.elf:     file format elf32-avr

Sections:
Idx Name          Size      VMA       LMA       File off  Algn
  0 .data         00000000  00800100  00800100  00001425  2**0
                  ALLOC, LOAD, DATA
  1 .text         000000ca  00000000  00000000  000000b4  2**1
                  CONTENTS, ALLOC, LOAD, READONLY, CODE
  2 .bss          0000000e  00800100  00800100  00001425  2**0
                  ALLOC
  3 .comment      0000005b  00000000  00000000  00001425  2**0
                  CONTENTS, READONLY
  4 .debug_info   000005f4  00000000  00000000  00001480  2**0
                  CONTENTS, READONLY, DEBUGGING
  5 .debug_abbrev 000005a2  00000000  00000000  00001a74  2**0
                  CONTENTS, READONLY, DEBUGGING
  6 .debug_line   00000137  00000000  00000000  00002016  2**0
                  CONTENTS, READONLY, DEBUGGING
  7 .debug_str    00000208  00000000  00000000  0000214d  2**0
                  CONTENTS, READONLY, DEBUGGING
  8 .text         00000004  000011aa  000011aa  0000125e  2**1
                  CONTENTS, ALLOC, LOAD, READONLY, CODE
  9 .note.gnu.avr.deviceinfo 00000040  00000000  00000000  00002358  2**2
                  CONTENTS, READONLY, DEBUGGING
 10 .text.getBit  0000004a  000011ae  000011ae  00001262  2**1
                  CONTENTS, ALLOC, LOAD, READONLY, CODE
 11 .progmemx.data 00000053  000011f8  000011f8  000012ac  2**0
                  CONTENTS, ALLOC, LOAD, READONLY, PROGMEMX
 12 .text.buildLEDCommand 000000d4  000005e8  000005e8  0000069c  2**1
                  CONTENTS, ALLOC, LOAD, READONLY, CODE
 13 .text.sendCommand 00000030  0000042e  0000042e  000004e2  2**1
                  CONTENTS, ALLOC, LOAD, READONLY, CODE
 14 .text.bitsToByteArray 000000aa  00000530  00000530  000005e4  2**1
                  CONTENTS, ALLOC, LOAD, READONLY, CODE
 15 .text.sendBitStream 00000088  00000388  00000388  0000043c  2**1
                  CONTENTS, ALLOC, LOAD, READONLY, CODE
 16 .bss.pos.2269 00000001  0080011c  0080011c  00001425  2**0
                  ALLOC
 17 .bss.bit_count 00000001  0080011d  0080011d  00001425  2**0
                  ALLOC
 18 .bss.byte_count 00000001  0080011e  0080011e  00001425  2**0
                  ALLOC
 19 .bss.bitstream 000000f0  0080011f  0080011f  00001425  2**0
                  ALLOC
 20 .bss.bitstream_byte_array 0000001e  0080020f  0080020f  00001425  2**0
                  ALLOC
 21 .bss.TX_command_array 00000007  0080022d  0080022d  00001425  2**0
                  ALLOC
 22 .text.getLedID 00000006  00000af4  00000af4  00000ba8  2**1
                  CONTENTS, ALLOC, LOAD, READONLY, CODE
 23 .text.setLedID 00000006  0000045e  0000045e  00000512  2**1
                  CONTENTS, ALLOC, LOAD, READONLY, CODE
 24 .text.getLedState 00000006  00000aae  00000aae  00000b62  2**1
                  CONTENTS, ALLOC, LOAD, READONLY, CODE
 25 .text.setLedState 00000006  00000464  00000464  00000518  2**1
                  CONTENTS, ALLOC, LOAD, READONLY, CODE
 26 .text.getLedMode 00000006  00000aa2  00000aa2  00000b56  2**1
                  CONTENTS, ALLOC, LOAD, READONLY, CODE
 27 .text.setLedMode 00000006  00000472  00000472  00000526  2**1
                  CONTENTS, ALLOC, LOAD, READONLY, CODE
 28 .text.getLedIntensity 00000006  00000a9c  00000a9c  00000b50  2**1
                  CONTENTS, ALLOC, LOAD, READONLY, CODE
 29 .text.setLedIntensity 00000006  00000478  00000478  0000052c  2**1
                  CONTENTS, ALLOC, LOAD, READONLY, CODE
 30 .text.getLedFrequency 00000008  00000a94  00000a94  00000b48  2**1
                  CONTENTS, ALLOC, LOAD, READONLY, CODE
 31 .text.setLedFrequency 00000008  0000046a  0000046a  0000051e  2**1
                  CONTENTS, ALLOC, LOAD, READONLY, CODE
 32 .text.getLedDutyCycle 00000006  00000aa8  00000aa8  00000b5c  2**1
                  CONTENTS, ALLOC, LOAD, READONLY, CODE
 33 .text.setLedDutyCycle 00000006  00000428  00000428  000004dc  2**1
                  CONTENTS, ALLOC, LOAD, READONLY, CODE
 34 .text.__vector_11 00000073  0000124b  0000124b  000012ff  2**1
                  CONTENTS, ALLOC, LOAD, READONLY, CODE
 35 .text.__vector_12 0000001c  000012be  000012be  00001372  2**1
                  CONTENTS, ALLOC, LOAD, READONLY, CODE
 36 .progmemx.data 0000003d  000012da  000012da  0000138e  2**0
                  CONTENTS, ALLOC, LOAD, READONLY, PROGMEMX
 37 .text.startup.main 000001de  000000ca  000000ca  0000017e  2**1
                  CONTENTS, ALLOC, LOAD, READONLY, CODE
 38 .text.nrf24_ce_digitalWrite.part.0 00000004  00000992  00000992  00000a46  2**1
                  CONTENTS, ALLOC, LOAD, READONLY, CODE
 39 .text.nrf24_csn_digitalWrite.part.1 00000004  000004d6  000004d6  0000058a  2**1
                  CONTENTS, ALLOC, LOAD, READONLY, CODE
 40 .text.nrf24_getStatus 0000001a  00000a7a  00000a7a  00000b2e  2**1
                  CONTENTS, ALLOC, LOAD, READONLY, CODE
 41 .text.nrf24_isSending 0000000e  000005da  000005da  0000068e  2**1
                  CONTENTS, ALLOC, LOAD, READONLY, CODE
 42 .progmemx.data 0000004c  00001317  00001317  000013cb  2**0
                  CONTENTS, ALLOC, LOAD, READONLY, PROGMEMX
 43 .text.nrf24_transmitSync 000000bc  000009b2  000009b2  00000a66  2**1
                  CONTENTS, ALLOC, LOAD, READONLY, CODE
 44 .text.nrf24_configRegister 00000020  00000488  00000488  0000053c  2**1
                  CONTENTS, ALLOC, LOAD, READONLY, CODE
 45 .text.nrf24_powerUpRx 00000022  000004a8  000004a8  0000055c  2**1
                  CONTENTS, ALLOC, LOAD, READONLY, CODE
 46 .text.nrf24_config 0000006c  000002fa  000002fa  000003ae  2**1
                  CONTENTS, ALLOC, LOAD, READONLY, CODE
 47 .text.nrf24_powerUpTx 0000000c  00000a6e  00000a6e  00000b22  2**1
                  CONTENTS, ALLOC, LOAD, READONLY, CODE
 48 .text.nrf24_send 0000003c  000004f4  000004f4  000005a8  2**1
                  CONTENTS, ALLOC, LOAD, READONLY, CODE
 49 .text.nrf24_writeRegister 0000001c  00000996  00000996  00000a4a  2**1
                  CONTENTS, ALLOC, LOAD, READONLY, CODE
 50 .text.nrf24_rx_address 0000000c  000004ca  000004ca  0000057e  2**1
                  CONTENTS, ALLOC, LOAD, READONLY, CODE
 51 .text.nrf24_tx_address 0000001a  000004da  000004da  0000058e  2**1
                  CONTENTS, ALLOC, LOAD, READONLY, CODE
 52 .text.nrf24_init 00000022  00000366  00000366  0000041a  2**1
                  CONTENTS, ALLOC, LOAD, READONLY, CODE
 53 .data.nrf24_addr 0000000a  0080010e  00001363  00001417  2**0
                  CONTENTS, ALLOC, LOAD, DATA
 54 .data.compB   00000004  00800118  0000136d  00001421  2**0
                  CONTENTS, ALLOC, LOAD, DATA
 55 .text.uart_init 00000018  00000410  00000410  000004c4  2**1
                  CONTENTS, ALLOC, LOAD, READONLY, CODE
 56 .text.uart_putc 0000000e  000002ec  000002ec  000003a0  2**1
                  CONTENTS, ALLOC, LOAD, READONLY, CODE
 57 .text.uart_puts 00000030  000002ae  000002ae  00000362  2**1
                  CONTENTS, ALLOC, LOAD, READONLY, CODE
 58 .text.uart_getc 0000000e  000002de  000002de  00000392  2**1
                  CONTENTS, ALLOC, LOAD, READONLY, CODE
 59 .text.libgcc.div 00000044  00000afa  00000afa  00000bae  2**1
                  CONTENTS, ALLOC, LOAD, READONLY, CODE
 60 .text.avrlibc 00000006  000002a8  000002a8  0000035c  2**1
                  CONTENTS, ALLOC, LOAD, READONLY, CODE
 61 .text.avrlibc 0000000a  0000047e  0000047e  00000532  2**1
                  CONTENTS, ALLOC, LOAD, READONLY, CODE
 62 .text.avrlibc 000002d6  000006bc  000006bc  00000770  2**1
                  CONTENTS, ALLOC, LOAD, READONLY, CODE
 63 .text.avrlibc 00000010  00000b5c  00000b5c  00000c10  2**1
                  CONTENTS, ALLOC, LOAD, READONLY, CODE
 64 .text.avrlibc 00000040  00000ab4  00000ab4  00000b68  2**1
                  CONTENTS, ALLOC, LOAD, READONLY, CODE
 65 .text.avrlibc 0000042e  00000b6c  00000b6c  00000c20  2**1
                  CONTENTS, ALLOC, LOAD, READONLY, CODE
 66 .text.avrlibc 00000006  0000101c  0000101c  000010d0  2**1
                  CONTENTS, ALLOC, LOAD, READONLY, CODE
 67 .text.avrlibc 00000036  00001156  00001156  0000120a  2**1
                  CONTENTS, ALLOC, LOAD, READONLY, CODE
 68 .text.avrlibc 00000078  00001022  00001022  000010d6  2**1
                  CONTENTS, ALLOC, LOAD, READONLY, CODE
 69 .text.avrlibc 000000bc  0000109a  0000109a  0000114e  2**1
                  CONTENTS, ALLOC, LOAD, READONLY, CODE
 70 .text.libgcc.mul 0000001e  00000b3e  00000b3e  00000bf2  2**1
                  CONTENTS, ALLOC, LOAD, READONLY, CODE
 71 .text.libgcc.mul 00000014  00001008  00001008  000010bc  2**1
                  CONTENTS, ALLOC, LOAD, READONLY, CODE
 72 .text.libgcc.prologue 00000038  00000fd0  00000fd0  00001084  2**1
                  CONTENTS, ALLOC, LOAD, READONLY, CODE
 73 .text.libgcc.prologue 00000036  00000f9a  00000f9a  0000104e  2**1
                  CONTENTS, ALLOC, LOAD, READONLY, CODE
 74 .text.libgcc.mul 0000001e  0000118c  0000118c  00001240  2**1
                  CONTENTS, ALLOC, LOAD, READONLY, CODE

Disassembly of section .text:

00000000 <__vectors>:
   0:	3c c0       	rjmp	.+120    	; 0x7a <__ctors_end>
   2:	00 00       	nop
   4:	0c 94 d5 08 	jmp	0x11aa	; 0x11aa <__bad_interrupt>
   8:	0c 94 d5 08 	jmp	0x11aa	; 0x11aa <__bad_interrupt>
   c:	0c 94 d5 08 	jmp	0x11aa	; 0x11aa <__bad_interrupt>
  10:	0c 94 d5 08 	jmp	0x11aa	; 0x11aa <__bad_interrupt>
  14:	0c 94 d5 08 	jmp	0x11aa	; 0x11aa <__bad_interrupt>
  18:	0c 94 d5 08 	jmp	0x11aa	; 0x11aa <__bad_interrupt>
  1c:	0c 94 d5 08 	jmp	0x11aa	; 0x11aa <__bad_interrupt>
  20:	0c 94 d5 08 	jmp	0x11aa	; 0x11aa <__bad_interrupt>
  24:	0c 94 d5 08 	jmp	0x11aa	; 0x11aa <__bad_interrupt>
  28:	0c 94 d5 08 	jmp	0x11aa	; 0x11aa <__bad_interrupt>
  2c:	0c 94 26 09 	jmp	0x124c	; 0x124c <__vector_11>
  30:	0c 94 5f 09 	jmp	0x12be	; 0x12be <__vector_12>
  34:	0c 94 d5 08 	jmp	0x11aa	; 0x11aa <__bad_interrupt>
  38:	0c 94 d5 08 	jmp	0x11aa	; 0x11aa <__bad_interrupt>
  3c:	0c 94 d5 08 	jmp	0x11aa	; 0x11aa <__bad_interrupt>
  40:	0c 94 d5 08 	jmp	0x11aa	; 0x11aa <__bad_interrupt>
  44:	0c 94 d5 08 	jmp	0x11aa	; 0x11aa <__bad_interrupt>
  48:	0c 94 d5 08 	jmp	0x11aa	; 0x11aa <__bad_interrupt>
  4c:	0c 94 d5 08 	jmp	0x11aa	; 0x11aa <__bad_interrupt>
  50:	0c 94 d5 08 	jmp	0x11aa	; 0x11aa <__bad_interrupt>
  54:	0c 94 d5 08 	jmp	0x11aa	; 0x11aa <__bad_interrupt>
  58:	0c 94 d5 08 	jmp	0x11aa	; 0x11aa <__bad_interrupt>
  5c:	0c 94 d5 08 	jmp	0x11aa	; 0x11aa <__bad_interrupt>
  60:	0c 94 d5 08 	jmp	0x11aa	; 0x11aa <__bad_interrupt>
  64:	0c 94 d5 08 	jmp	0x11aa	; 0x11aa <__bad_interrupt>

00000068 <.dinit>:
  68:	01 00       	.word	0x0001	; ????
  6a:	01 0e       	add	r0, r17
  6c:	80 01       	movw	r16, r0
  6e:	0e 01       	movw	r0, r28
  70:	1c 00       	.word	0x001c	; ????
  72:	13 63       	ori	r17, 0x33	; 51
  74:	01 1c       	adc	r0, r1
  76:	02 34       	cpi	r16, 0x42	; 66
  78:	80 00       	.word	0x0080	; ????

0000007a <__ctors_end>:
  7a:	11 24       	eor	r1, r1
  7c:	1f be       	out	0x3f, r1	; 63
  7e:	cf ef       	ldi	r28, 0xFF	; 255
  80:	d8 e0       	ldi	r29, 0x08	; 8
  82:	de bf       	out	0x3e, r29	; 62
  84:	cd bf       	out	0x3d, r28	; 61

00000086 <__do_copy_data>:
  86:	e8 e6       	ldi	r30, 0x68	; 104
  88:	f0 e0       	ldi	r31, 0x00	; 0
  8a:	40 e0       	ldi	r20, 0x00	; 0
  8c:	17 c0       	rjmp	.+46     	; 0xbc <__do_clear_bss+0x8>
  8e:	b5 91       	lpm	r27, Z+
  90:	a5 91       	lpm	r26, Z+
  92:	35 91       	lpm	r19, Z+
  94:	25 91       	lpm	r18, Z+
  96:	05 91       	lpm	r16, Z+
  98:	07 fd       	sbrc	r16, 7
  9a:	0c c0       	rjmp	.+24     	; 0xb4 <__do_clear_bss>
  9c:	95 91       	lpm	r25, Z+
  9e:	85 91       	lpm	r24, Z+
  a0:	ef 01       	movw	r28, r30
  a2:	f9 2f       	mov	r31, r25
  a4:	e8 2f       	mov	r30, r24
  a6:	05 90       	lpm	r0, Z+
  a8:	0d 92       	st	X+, r0
  aa:	a2 17       	cp	r26, r18
  ac:	b3 07       	cpc	r27, r19
  ae:	d9 f7       	brne	.-10     	; 0xa6 <__do_copy_data+0x20>
  b0:	fe 01       	movw	r30, r28
  b2:	04 c0       	rjmp	.+8      	; 0xbc <__do_clear_bss+0x8>

000000b4 <__do_clear_bss>:
  b4:	1d 92       	st	X+, r1
  b6:	a2 17       	cp	r26, r18
  b8:	b3 07       	cpc	r27, r19
  ba:	e1 f7       	brne	.-8      	; 0xb4 <__do_clear_bss>
  bc:	e9 37       	cpi	r30, 0x79	; 121
  be:	f4 07       	cpc	r31, r20
  c0:	31 f7       	brne	.-52     	; 0x8e <__do_copy_data+0x8>
  c2:	03 d0       	rcall	.+6      	; 0xca <_etext>
  c4:	00 c0       	rjmp	.+0      	; 0xc6 <_exit>

000000c6 <_exit>:
  c6:	f8 94       	cli

000000c8 <__stop_program>:
  c8:	ff cf       	rjmp	.-2      	; 0xc8 <__stop_program>

Disassembly of section .text:

000011aa <__bad_interrupt>:
    11aa:	0c 94 00 00 	jmp	0	; 0x0 <__TEXT_REGION_ORIGIN__>

Disassembly of section .text.getBit:

000011ae <getBit>:
    11ae:	20 91 1c 01 	lds	r18, 0x011C	; 0x80011c <pos.2269>
    11b2:	30 91 1d 01 	lds	r19, 0x011D	; 0x80011d <bit_count>
    11b6:	23 17       	cp	r18, r19
    11b8:	68 f0       	brcs	.+26     	; 0x11d4 <getBit+0x26>
    11ba:	10 92 1c 01 	sts	0x011C, r1	; 0x80011c <pos.2269>
    11be:	20 e0       	ldi	r18, 0x00	; 0
    11c0:	30 e0       	ldi	r19, 0x00	; 0
    11c2:	fc 01       	movw	r30, r24
    11c4:	82 81       	ldd	r24, Z+2	; 0x02
    11c6:	f9 01       	movw	r30, r18
    11c8:	e1 5e       	subi	r30, 0xE1	; 225
    11ca:	fe 4f       	sbci	r31, 0xFE	; 254
    11cc:	82 30       	cpi	r24, 0x02	; 2
    11ce:	69 f0       	breq	.+26     	; 0x11ea <getBit+0x3c>
    11d0:	80 81       	ld	r24, Z
    11d2:	08 95       	ret
    11d4:	2f 5f       	subi	r18, 0xFF	; 255
    11d6:	20 93 1c 01 	sts	0x011C, r18	; 0x80011c <pos.2269>
    11da:	30 e0       	ldi	r19, 0x00	; 0
    11dc:	fc 01       	movw	r30, r24
    11de:	82 81       	ldd	r24, Z+2	; 0x02
    11e0:	f9 01       	movw	r30, r18
    11e2:	e1 5e       	subi	r30, 0xE1	; 225
    11e4:	fe 4f       	sbci	r31, 0xFE	; 254
    11e6:	82 30       	cpi	r24, 0x02	; 2
    11e8:	99 f7       	brne	.-26     	; 0x11d0 <getBit+0x22>
    11ea:	81 e0       	ldi	r24, 0x01	; 1
    11ec:	90 81       	ld	r25, Z
    11ee:	91 11       	cpse	r25, r1
    11f0:	01 c0       	rjmp	.+2      	; 0x11f4 <getBit+0x46>
    11f2:	08 95       	ret
    11f4:	80 e0       	ldi	r24, 0x00	; 0
    11f6:	08 95       	ret

Disassembly of section .text.buildLEDCommand:

000005e8 <buildLEDCommand>:
 5e8:	ef 92       	push	r14
 5ea:	ff 92       	push	r15
 5ec:	0f 93       	push	r16
 5ee:	1f 93       	push	r17
 5f0:	cf 93       	push	r28
 5f2:	df 93       	push	r29
 5f4:	cd b7       	in	r28, 0x3d	; 61
 5f6:	de b7       	in	r29, 0x3e	; 62
 5f8:	e2 97       	sbiw	r28, 0x32	; 50
 5fa:	0f b6       	in	r0, 0x3f	; 63
 5fc:	f8 94       	cli
 5fe:	de bf       	out	0x3e, r29	; 62
 600:	0f be       	out	0x3f, r0	; 63
 602:	cd bf       	out	0x3d, r28	; 61
 604:	7c 01       	movw	r14, r24
 606:	0d e2       	ldi	r16, 0x2D	; 45
 608:	12 e0       	ldi	r17, 0x02	; 2
 60a:	87 e0       	ldi	r24, 0x07	; 7
 60c:	f8 01       	movw	r30, r16
 60e:	11 92       	st	Z+, r1
 610:	8a 95       	dec	r24
 612:	e9 f7       	brne	.-6      	; 0x60e <buildLEDCommand+0x26>
 614:	c7 01       	movw	r24, r14
 616:	6e d2       	rcall	.+1244   	; 0xaf4 <getLedID>
 618:	f8 01       	movw	r30, r16
 61a:	80 83       	st	Z, r24
 61c:	c7 01       	movw	r24, r14
 61e:	47 d2       	rcall	.+1166   	; 0xaae <getLedState>
 620:	f8 01       	movw	r30, r16
 622:	81 83       	std	Z+1, r24	; 0x01
 624:	c7 01       	movw	r24, r14
 626:	3d d2       	rcall	.+1146   	; 0xaa2 <getLedMode>
 628:	f8 01       	movw	r30, r16
 62a:	82 83       	std	Z+2, r24	; 0x02
 62c:	c7 01       	movw	r24, r14
 62e:	36 d2       	rcall	.+1132   	; 0xa9c <getLedIntensity>
 630:	f8 01       	movw	r30, r16
 632:	83 83       	std	Z+3, r24	; 0x03
 634:	c7 01       	movw	r24, r14
 636:	2e d2       	rcall	.+1116   	; 0xa94 <getLedFrequency>
 638:	f8 01       	movw	r30, r16
 63a:	84 83       	std	Z+4, r24	; 0x04
 63c:	c7 01       	movw	r24, r14
 63e:	2a d2       	rcall	.+1108   	; 0xa94 <getLedFrequency>
 640:	f8 01       	movw	r30, r16
 642:	95 83       	std	Z+5, r25	; 0x05
 644:	c7 01       	movw	r24, r14
 646:	30 d2       	rcall	.+1120   	; 0xaa8 <getLedDutyCycle>
 648:	f8 01       	movw	r30, r16
 64a:	86 83       	std	Z+6, r24	; 0x06
 64c:	68 ef       	ldi	r22, 0xF8	; 248
 64e:	71 e1       	ldi	r23, 0x11	; 17
 650:	80 e0       	ldi	r24, 0x00	; 0
 652:	2d de       	rcall	.-934    	; 0x2ae <uart_puts>
 654:	f8 01       	movw	r30, r16
 656:	86 81       	ldd	r24, Z+6	; 0x06
 658:	1f 92       	push	r1
 65a:	8f 93       	push	r24
 65c:	85 81       	ldd	r24, Z+5	; 0x05
 65e:	1f 92       	push	r1
 660:	8f 93       	push	r24
 662:	84 81       	ldd	r24, Z+4	; 0x04
 664:	1f 92       	push	r1
 666:	8f 93       	push	r24
 668:	83 81       	ldd	r24, Z+3	; 0x03
 66a:	1f 92       	push	r1
 66c:	8f 93       	push	r24
 66e:	82 81       	ldd	r24, Z+2	; 0x02
 670:	1f 92       	push	r1
 672:	8f 93       	push	r24
 674:	80 81       	ld	r24, Z
 676:	1f 92       	push	r1
 678:	8f 93       	push	r24
 67a:	8b ef       	ldi	r24, 0xFB	; 251
 67c:	91 e1       	ldi	r25, 0x11	; 17
 67e:	a0 e0       	ldi	r26, 0x00	; 0
 680:	af 93       	push	r26
 682:	9f 93       	push	r25
 684:	8f 93       	push	r24
 686:	8e 01       	movw	r16, r28
 688:	0f 5f       	subi	r16, 0xFF	; 255
 68a:	1f 4f       	sbci	r17, 0xFF	; 255
 68c:	1f 93       	push	r17
 68e:	0f 93       	push	r16
 690:	11 d2       	rcall	.+1058   	; 0xab4 <sprintf>
 692:	b8 01       	movw	r22, r16
 694:	80 e8       	ldi	r24, 0x80	; 128
 696:	0b de       	rcall	.-1002   	; 0x2ae <uart_puts>
 698:	0f b6       	in	r0, 0x3f	; 63
 69a:	f8 94       	cli
 69c:	de bf       	out	0x3e, r29	; 62
 69e:	0f be       	out	0x3f, r0	; 63
 6a0:	cd bf       	out	0x3d, r28	; 61
 6a2:	e2 96       	adiw	r28, 0x32	; 50
 6a4:	0f b6       	in	r0, 0x3f	; 63
 6a6:	f8 94       	cli
 6a8:	de bf       	out	0x3e, r29	; 62
 6aa:	0f be       	out	0x3f, r0	; 63
 6ac:	cd bf       	out	0x3d, r28	; 61
 6ae:	df 91       	pop	r29
 6b0:	cf 91       	pop	r28
 6b2:	1f 91       	pop	r17
 6b4:	0f 91       	pop	r16
 6b6:	ff 90       	pop	r15
 6b8:	ef 90       	pop	r14
 6ba:	08 95       	ret

Disassembly of section .text.sendCommand:

0000042e <sendCommand>:
 42e:	cf 93       	push	r28
 430:	df 93       	push	r29
 432:	ec 01       	movw	r28, r24
 434:	68 e1       	ldi	r22, 0x18	; 24
 436:	72 e1       	ldi	r23, 0x12	; 18
 438:	80 e0       	ldi	r24, 0x00	; 0
 43a:	39 df       	rcall	.-398    	; 0x2ae <uart_puts>
 43c:	ce 01       	movw	r24, r28
 43e:	d4 d0       	rcall	.+424    	; 0x5e8 <buildLEDCommand>
 440:	c5 e0       	ldi	r28, 0x05	; 5
 442:	8d e2       	ldi	r24, 0x2D	; 45
 444:	92 e0       	ldi	r25, 0x02	; 2
 446:	56 d0       	rcall	.+172    	; 0x4f4 <nrf24_send>
 448:	c8 d0       	rcall	.+400    	; 0x5da <nrf24_isSending>
 44a:	81 11       	cpse	r24, r1
 44c:	fd cf       	rjmp	.-6      	; 0x448 <sendCommand+0x1a>
 44e:	c1 50       	subi	r28, 0x01	; 1
 450:	c1 f7       	brne	.-16     	; 0x442 <sendCommand+0x14>
 452:	6d e2       	ldi	r22, 0x2D	; 45
 454:	72 e1       	ldi	r23, 0x12	; 18
 456:	80 e0       	ldi	r24, 0x00	; 0
 458:	df 91       	pop	r29
 45a:	cf 91       	pop	r28
 45c:	28 cf       	rjmp	.-432    	; 0x2ae <uart_puts>

Disassembly of section .text.bitsToByteArray:

00000530 <bitsToByteArray>:
 530:	66 23       	and	r22, r22
 532:	09 f4       	brne	.+2      	; 0x536 <bitsToByteArray+0x6>
 534:	51 c0       	rjmp	.+162    	; 0x5d8 <bitsToByteArray+0xa8>
 536:	dc 01       	movw	r26, r24
 538:	20 e0       	ldi	r18, 0x00	; 0
 53a:	90 e0       	ldi	r25, 0x00	; 0
 53c:	45 e2       	ldi	r20, 0x25	; 37
 53e:	8d 91       	ld	r24, X+
 540:	22 0f       	add	r18, r18
 542:	28 2b       	or	r18, r24
 544:	94 9f       	mul	r25, r20
 546:	31 2d       	mov	r19, r1
 548:	11 24       	eor	r1, r1
 54a:	89 2f       	mov	r24, r25
 54c:	83 1b       	sub	r24, r19
 54e:	86 95       	lsr	r24
 550:	83 0f       	add	r24, r19
 552:	86 95       	lsr	r24
 554:	86 95       	lsr	r24
 556:	38 2f       	mov	r19, r24
 558:	33 0f       	add	r19, r19
 55a:	33 0f       	add	r19, r19
 55c:	33 0f       	add	r19, r19
 55e:	38 1b       	sub	r19, r24
 560:	93 13       	cpse	r25, r19
 562:	10 c0       	rjmp	.+32     	; 0x584 <bitsToByteArray+0x54>
 564:	99 23       	and	r25, r25
 566:	71 f0       	breq	.+28     	; 0x584 <bitsToByteArray+0x54>
 568:	e9 2f       	mov	r30, r25
 56a:	e6 95       	lsr	r30
 56c:	e6 95       	lsr	r30
 56e:	e6 95       	lsr	r30
 570:	f0 e0       	ldi	r31, 0x00	; 0
 572:	e1 5f       	subi	r30, 0xF1	; 241
 574:	fd 4f       	sbci	r31, 0xFD	; 253
 576:	20 83       	st	Z, r18
 578:	80 91 1e 01 	lds	r24, 0x011E	; 0x80011e <byte_count>
 57c:	8f 5f       	subi	r24, 0xFF	; 255
 57e:	80 93 1e 01 	sts	0x011E, r24	; 0x80011e <byte_count>
 582:	20 e0       	ldi	r18, 0x00	; 0
 584:	9f 5f       	subi	r25, 0xFF	; 255
 586:	69 13       	cpse	r22, r25
 588:	da cf       	rjmp	.-76     	; 0x53e <bitsToByteArray+0xe>
 58a:	85 e2       	ldi	r24, 0x25	; 37
 58c:	68 9f       	mul	r22, r24
 58e:	91 2d       	mov	r25, r1
 590:	11 24       	eor	r1, r1
 592:	86 2f       	mov	r24, r22
 594:	89 1b       	sub	r24, r25
 596:	86 95       	lsr	r24
 598:	89 0f       	add	r24, r25
 59a:	86 95       	lsr	r24
 59c:	86 95       	lsr	r24
 59e:	98 2f       	mov	r25, r24
 5a0:	99 0f       	add	r25, r25
 5a2:	99 0f       	add	r25, r25
 5a4:	99 0f       	add	r25, r25
 5a6:	98 1b       	sub	r25, r24
 5a8:	69 17       	cp	r22, r25
 5aa:	b1 f0       	breq	.+44     	; 0x5d8 <bitsToByteArray+0xa8>
 5ac:	e6 2f       	mov	r30, r22
 5ae:	e6 95       	lsr	r30
 5b0:	e6 95       	lsr	r30
 5b2:	e6 95       	lsr	r30
 5b4:	f0 e0       	ldi	r31, 0x00	; 0
 5b6:	e1 5f       	subi	r30, 0xF1	; 241
 5b8:	fd 4f       	sbci	r31, 0xFD	; 253
 5ba:	67 70       	andi	r22, 0x07	; 7
 5bc:	88 e0       	ldi	r24, 0x08	; 8
 5be:	90 e0       	ldi	r25, 0x00	; 0
 5c0:	86 1b       	sub	r24, r22
 5c2:	91 09       	sbc	r25, r1
 5c4:	01 c0       	rjmp	.+2      	; 0x5c8 <bitsToByteArray+0x98>
 5c6:	22 0f       	add	r18, r18
 5c8:	8a 95       	dec	r24
 5ca:	ea f7       	brpl	.-6      	; 0x5c6 <bitsToByteArray+0x96>
 5cc:	20 83       	st	Z, r18
 5ce:	80 91 1e 01 	lds	r24, 0x011E	; 0x80011e <byte_count>
 5d2:	8f 5f       	subi	r24, 0xFF	; 255
 5d4:	80 93 1e 01 	sts	0x011E, r24	; 0x80011e <byte_count>
 5d8:	08 95       	ret

Disassembly of section .text.sendBitStream:

00000388 <sendBitStream>:
 388:	ef 92       	push	r14
 38a:	ff 92       	push	r15
 38c:	0f 93       	push	r16
 38e:	1f 93       	push	r17
 390:	cf 93       	push	r28
 392:	7c 01       	movw	r14, r24
 394:	c6 2f       	mov	r28, r22
 396:	8a 01       	movw	r16, r20
 398:	64 e3       	ldi	r22, 0x34	; 52
 39a:	72 e1       	ldi	r23, 0x12	; 18
 39c:	80 e0       	ldi	r24, 0x00	; 0
 39e:	87 df       	rcall	.-242    	; 0x2ae <uart_puts>
 3a0:	6c 2f       	mov	r22, r28
 3a2:	c7 01       	movw	r24, r14
 3a4:	c5 d0       	rcall	.+394    	; 0x530 <bitsToByteArray>
 3a6:	87 e0       	ldi	r24, 0x07	; 7
 3a8:	ed e2       	ldi	r30, 0x2D	; 45
 3aa:	f2 e0       	ldi	r31, 0x02	; 2
 3ac:	df 01       	movw	r26, r30
 3ae:	1d 92       	st	X+, r1
 3b0:	8a 95       	dec	r24
 3b2:	e9 f7       	brne	.-6      	; 0x3ae <sendBitStream+0x26>
 3b4:	f8 01       	movw	r30, r16
 3b6:	80 81       	ld	r24, Z
 3b8:	80 93 2d 02 	sts	0x022D, r24	; 0x80022d <TX_command_array>
 3bc:	8f ef       	ldi	r24, 0xFF	; 255
 3be:	80 93 2e 02 	sts	0x022E, r24	; 0x80022e <TX_command_array+0x1>
 3c2:	c0 93 2f 02 	sts	0x022F, r28	; 0x80022f <TX_command_array+0x2>
 3c6:	40 91 1e 01 	lds	r20, 0x011E	; 0x80011e <byte_count>
 3ca:	50 e0       	ldi	r21, 0x00	; 0
 3cc:	44 0f       	add	r20, r20
 3ce:	55 1f       	adc	r21, r21
 3d0:	44 30       	cpi	r20, 0x04	; 4
 3d2:	51 05       	cpc	r21, r1
 3d4:	8c f0       	brlt	.+34     	; 0x3f8 <sendBitStream+0x70>
 3d6:	83 e0       	ldi	r24, 0x03	; 3
 3d8:	90 e0       	ldi	r25, 0x00	; 0
 3da:	23 e0       	ldi	r18, 0x03	; 3
 3dc:	fc 01       	movw	r30, r24
 3de:	e3 5d       	subi	r30, 0xD3	; 211
 3e0:	fd 4f       	sbci	r31, 0xFD	; 253
 3e2:	dc 01       	movw	r26, r24
 3e4:	a4 5f       	subi	r26, 0xF4	; 244
 3e6:	bd 4f       	sbci	r27, 0xFD	; 253
 3e8:	8c 91       	ld	r24, X
 3ea:	80 83       	st	Z, r24
 3ec:	2f 5f       	subi	r18, 0xFF	; 255
 3ee:	82 2f       	mov	r24, r18
 3f0:	90 e0       	ldi	r25, 0x00	; 0
 3f2:	84 17       	cp	r24, r20
 3f4:	95 07       	cpc	r25, r21
 3f6:	94 f3       	brlt	.-28     	; 0x3dc <sendBitStream+0x54>
 3f8:	8d e2       	ldi	r24, 0x2D	; 45
 3fa:	92 e0       	ldi	r25, 0x02	; 2
 3fc:	7b d0       	rcall	.+246    	; 0x4f4 <nrf24_send>
 3fe:	6d e2       	ldi	r22, 0x2D	; 45
 400:	72 e1       	ldi	r23, 0x12	; 18
 402:	80 e0       	ldi	r24, 0x00	; 0
 404:	cf 91       	pop	r28
 406:	1f 91       	pop	r17
 408:	0f 91       	pop	r16
 40a:	ff 90       	pop	r15
 40c:	ef 90       	pop	r14
 40e:	4f cf       	rjmp	.-354    	; 0x2ae <uart_puts>

Disassembly of section .text.getLedID:

00000af4 <getLedID>:
 af4:	fc 01       	movw	r30, r24
 af6:	80 81       	ld	r24, Z
 af8:	08 95       	ret

Disassembly of section .text.setLedID:

0000045e <setLedID>:
 45e:	fc 01       	movw	r30, r24
 460:	60 83       	st	Z, r22
 462:	08 95       	ret

Disassembly of section .text.getLedState:

00000aae <getLedState>:
 aae:	fc 01       	movw	r30, r24
 ab0:	81 81       	ldd	r24, Z+1	; 0x01
 ab2:	08 95       	ret

Disassembly of section .text.setLedState:

00000464 <setLedState>:
 464:	fc 01       	movw	r30, r24
 466:	61 83       	std	Z+1, r22	; 0x01
 468:	08 95       	ret

Disassembly of section .text.getLedMode:

00000aa2 <getLedMode>:
 aa2:	fc 01       	movw	r30, r24
 aa4:	82 81       	ldd	r24, Z+2	; 0x02
 aa6:	08 95       	ret

Disassembly of section .text.setLedMode:

00000472 <setLedMode>:
 472:	fc 01       	movw	r30, r24
 474:	62 83       	std	Z+2, r22	; 0x02
 476:	08 95       	ret

Disassembly of section .text.getLedIntensity:

00000a9c <getLedIntensity>:
 a9c:	fc 01       	movw	r30, r24
 a9e:	83 81       	ldd	r24, Z+3	; 0x03
 aa0:	08 95       	ret

Disassembly of section .text.setLedIntensity:

00000478 <setLedIntensity>:
 478:	fc 01       	movw	r30, r24
 47a:	63 83       	std	Z+3, r22	; 0x03
 47c:	08 95       	ret

Disassembly of section .text.getLedFrequency:

00000a94 <getLedFrequency>:
 a94:	fc 01       	movw	r30, r24
 a96:	84 81       	ldd	r24, Z+4	; 0x04
 a98:	95 81       	ldd	r25, Z+5	; 0x05
 a9a:	08 95       	ret

Disassembly of section .text.setLedFrequency:

0000046a <setLedFrequency>:
 46a:	fc 01       	movw	r30, r24
 46c:	75 83       	std	Z+5, r23	; 0x05
 46e:	64 83       	std	Z+4, r22	; 0x04
 470:	08 95       	ret

Disassembly of section .text.getLedDutyCycle:

00000aa8 <getLedDutyCycle>:
 aa8:	fc 01       	movw	r30, r24
 aaa:	86 81       	ldd	r24, Z+6	; 0x06
 aac:	08 95       	ret

Disassembly of section .text.setLedDutyCycle:

00000428 <setLedDutyCycle>:
 428:	fc 01       	movw	r30, r24
 42a:	66 83       	std	Z+6, r22	; 0x06
 42c:	08 95       	ret

Disassembly of section .text.__vector_11:

0000124b <__vector_11-0x1>:
	...

0000124c <__vector_11>:
    124c:	1f 92       	push	r1
    124e:	0f 92       	push	r0
    1250:	0f b6       	in	r0, 0x3f	; 63
    1252:	0f 92       	push	r0
    1254:	11 24       	eor	r1, r1
    1256:	2f 93       	push	r18
    1258:	3f 93       	push	r19
    125a:	4f 93       	push	r20
    125c:	5f 93       	push	r21
    125e:	6f 93       	push	r22
    1260:	7f 93       	push	r23
    1262:	8f 93       	push	r24
    1264:	9f 93       	push	r25
    1266:	af 93       	push	r26
    1268:	bf 93       	push	r27
    126a:	ef 93       	push	r30
    126c:	ff 93       	push	r31
    126e:	80 e0       	ldi	r24, 0x00	; 0
    1270:	91 e0       	ldi	r25, 0x01	; 1
    1272:	9d df       	rcall	.-198    	; 0x11ae <getBit>
    1274:	e8 2f       	mov	r30, r24
    1276:	f0 e0       	ldi	r31, 0x00	; 0
    1278:	ee 0f       	add	r30, r30
    127a:	ff 1f       	adc	r31, r31
    127c:	e8 5e       	subi	r30, 0xE8	; 232
    127e:	fe 4f       	sbci	r31, 0xFE	; 254
    1280:	01 90       	ld	r0, Z+
    1282:	f0 81       	ld	r31, Z
    1284:	e0 2d       	mov	r30, r0
    1286:	20 81       	ld	r18, Z
    1288:	31 81       	ldd	r19, Z+1	; 0x01
    128a:	30 93 8b 00 	sts	0x008B, r19	; 0x80008b <__TEXT_REGION_LENGTH__+0x7f808b>
    128e:	20 93 8a 00 	sts	0x008A, r18	; 0x80008a <__TEXT_REGION_LENGTH__+0x7f808a>
    1292:	81 11       	cpse	r24, r1
    1294:	12 c0       	rjmp	.+36     	; 0x12ba <__vector_11+0x6e>
    1296:	5e 98       	cbi	0x0b, 6	; 11
    1298:	ff 91       	pop	r31
    129a:	ef 91       	pop	r30
    129c:	bf 91       	pop	r27
    129e:	af 91       	pop	r26
    12a0:	9f 91       	pop	r25
    12a2:	8f 91       	pop	r24
    12a4:	7f 91       	pop	r23
    12a6:	6f 91       	pop	r22
    12a8:	5f 91       	pop	r21
    12aa:	4f 91       	pop	r20
    12ac:	3f 91       	pop	r19
    12ae:	2f 91       	pop	r18
    12b0:	0f 90       	pop	r0
    12b2:	0f be       	out	0x3f, r0	; 63
    12b4:	0f 90       	pop	r0
    12b6:	1f 90       	pop	r1
    12b8:	18 95       	reti
    12ba:	5e 9a       	sbi	0x0b, 6	; 11
    12bc:	ed cf       	rjmp	.-38     	; 0x1298 <__vector_11+0x4c>

Disassembly of section .text.__vector_12:

000012be <__vector_12>:
    12be:	1f 92       	push	r1
    12c0:	0f 92       	push	r0
    12c2:	0f b6       	in	r0, 0x3f	; 63
    12c4:	0f 92       	push	r0
    12c6:	11 24       	eor	r1, r1
    12c8:	8f 93       	push	r24
    12ca:	8b b1       	in	r24, 0x0b	; 11
    12cc:	5e 98       	cbi	0x0b, 6	; 11
    12ce:	8f 91       	pop	r24
    12d0:	0f 90       	pop	r0
    12d2:	0f be       	out	0x3f, r0	; 63
    12d4:	0f 90       	pop	r0
    12d6:	1f 90       	pop	r1
    12d8:	18 95       	reti

Disassembly of section .text.startup.main:

000000ca <main>:
  ca:	cf 93       	push	r28
  cc:	df 93       	push	r29
  ce:	cd b7       	in	r28, 0x3d	; 61
  d0:	de b7       	in	r29, 0x3e	; 62
  d2:	28 97       	sbiw	r28, 0x08	; 8
  d4:	0f b6       	in	r0, 0x3f	; 63
  d6:	f8 94       	cli
  d8:	de bf       	out	0x3e, r29	; 62
  da:	0f be       	out	0x3f, r0	; 63
  dc:	cd bf       	out	0x3d, r28	; 61
  de:	98 d1       	rcall	.+816    	; 0x410 <uart_init>
  e0:	6a ed       	ldi	r22, 0xDA	; 218
  e2:	72 e1       	ldi	r23, 0x12	; 18
  e4:	80 e0       	ldi	r24, 0x00	; 0
  e6:	e3 d0       	rcall	.+454    	; 0x2ae <uart_puts>
  e8:	68 ee       	ldi	r22, 0xE8	; 232
  ea:	72 e1       	ldi	r23, 0x12	; 18
  ec:	80 e0       	ldi	r24, 0x00	; 0
  ee:	df d0       	rcall	.+446    	; 0x2ae <uart_puts>
  f0:	29 9a       	sbi	0x05, 1	; 5
  f2:	2a 9a       	sbi	0x05, 2	; 5
  f4:	84 b1       	in	r24, 0x04	; 4
  f6:	8e 62       	ori	r24, 0x2E	; 46
  f8:	84 b9       	out	0x04, r24	; 4
  fa:	84 b1       	in	r24, 0x04	; 4
  fc:	86 60       	ori	r24, 0x06	; 6
  fe:	84 b9       	out	0x04, r24	; 4
 100:	80 e5       	ldi	r24, 0x50	; 80
 102:	8c bd       	out	0x2c, r24	; 44
 104:	30 d1       	rcall	.+608    	; 0x366 <nrf24_init>
 106:	67 e0       	ldi	r22, 0x07	; 7
 108:	82 e0       	ldi	r24, 0x02	; 2
 10a:	f7 d0       	rcall	.+494    	; 0x2fa <nrf24_config>
 10c:	68 ef       	ldi	r22, 0xF8	; 248
 10e:	72 e1       	ldi	r23, 0x12	; 18
 110:	80 e0       	ldi	r24, 0x00	; 0
 112:	cd d0       	rcall	.+410    	; 0x2ae <uart_puts>
 114:	78 94       	sei
 116:	f1 2c       	mov	r15, r1
 118:	d1 2c       	mov	r13, r1
 11a:	00 e0       	ldi	r16, 0x00	; 0
 11c:	e1 2c       	mov	r14, r1
 11e:	8f e1       	ldi	r24, 0x1F	; 31
 120:	88 2e       	mov	r8, r24
 122:	81 e0       	ldi	r24, 0x01	; 1
 124:	98 2e       	mov	r9, r24
 126:	ce 01       	movw	r24, r28
 128:	01 96       	adiw	r24, 0x01	; 1
 12a:	5c 01       	movw	r10, r24
 12c:	98 e0       	ldi	r25, 0x08	; 8
 12e:	c9 2e       	mov	r12, r25
 130:	25 01       	movw	r4, r10
 132:	90 e8       	ldi	r25, 0x80	; 128
 134:	69 2e       	mov	r6, r25
 136:	20 ef       	ldi	r18, 0xF0	; 240
 138:	72 2e       	mov	r7, r18
 13a:	d1 d0       	rcall	.+418    	; 0x2de <uart_getc>
 13c:	18 2f       	mov	r17, r24
 13e:	d6 d0       	rcall	.+428    	; 0x2ec <uart_putc>
 140:	1a 32       	cpi	r17, 0x2A	; 42
 142:	41 f1       	breq	.+80     	; 0x194 <main+0xca>
 144:	1b 32       	cpi	r17, 0x2B	; 43
 146:	78 f5       	brcc	.+94     	; 0x1a6 <main+0xdc>
 148:	1a 30       	cpi	r17, 0x0A	; 10
 14a:	09 f4       	brne	.+2      	; 0x14e <main+0x84>
 14c:	52 c0       	rjmp	.+164    	; 0x1f2 <main+0x128>
 14e:	14 32       	cpi	r17, 0x24	; 36
 150:	09 f0       	breq	.+2      	; 0x154 <main+0x8a>
 152:	5e c0       	rjmp	.+188    	; 0x210 <main+0x146>
 154:	f5 01       	movw	r30, r10
 156:	8c 2d       	mov	r24, r12
 158:	11 92       	st	Z+, r1
 15a:	8a 95       	dec	r24
 15c:	e9 f7       	brne	.-6      	; 0x158 <main+0x8e>
 15e:	bf d0       	rcall	.+382    	; 0x2de <uart_getc>
 160:	18 2f       	mov	r17, r24
 162:	c4 d0       	rcall	.+392    	; 0x2ec <uart_putc>
 164:	1a 32       	cpi	r17, 0x2A	; 42
 166:	09 f4       	brne	.+2      	; 0x16a <main+0xa0>
 168:	5d c0       	rjmp	.+186    	; 0x224 <main+0x15a>
 16a:	08 f0       	brcs	.+2      	; 0x16e <main+0xa4>
 16c:	61 c0       	rjmp	.+194    	; 0x230 <main+0x166>
 16e:	1a 30       	cpi	r17, 0x0A	; 10
 170:	09 f4       	brne	.+2      	; 0x174 <main+0xaa>
 172:	3b c0       	rjmp	.+118    	; 0x1ea <main+0x120>
 174:	14 32       	cpi	r17, 0x24	; 36
 176:	71 f3       	breq	.-36     	; 0x154 <main+0x8a>
 178:	00 e0       	ldi	r16, 0x00	; 0
 17a:	e1 2c       	mov	r14, r1
 17c:	f5 01       	movw	r30, r10
 17e:	ee 0d       	add	r30, r14
 180:	f1 1d       	adc	r31, r1
 182:	10 83       	st	Z, r17
 184:	e3 94       	inc	r14
 186:	ff 24       	eor	r15, r15
 188:	f3 94       	inc	r15
 18a:	a9 d0       	rcall	.+338    	; 0x2de <uart_getc>
 18c:	18 2f       	mov	r17, r24
 18e:	ae d0       	rcall	.+348    	; 0x2ec <uart_putc>
 190:	1a 32       	cpi	r17, 0x2A	; 42
 192:	c1 f6       	brne	.-80     	; 0x144 <main+0x7a>
 194:	f1 10       	cpse	r15, r1
 196:	48 c0       	rjmp	.+144    	; 0x228 <main+0x15e>
 198:	40 e0       	ldi	r20, 0x00	; 0
 19a:	51 e0       	ldi	r21, 0x01	; 1
 19c:	6d 2d       	mov	r22, r13
 19e:	8f e1       	ldi	r24, 0x1F	; 31
 1a0:	91 e0       	ldi	r25, 0x01	; 1
 1a2:	f2 d0       	rcall	.+484    	; 0x388 <sendBitStream>
 1a4:	ca cf       	rjmp	.-108    	; 0x13a <main+0x70>
 1a6:	12 34       	cpi	r17, 0x42	; 66
 1a8:	59 f1       	breq	.+86     	; 0x200 <main+0x136>
 1aa:	12 36       	cpi	r17, 0x62	; 98
 1ac:	49 f1       	breq	.+82     	; 0x200 <main+0x136>
 1ae:	1c 32       	cpi	r17, 0x2C	; 44
 1b0:	79 f5       	brne	.+94     	; 0x210 <main+0x146>
 1b2:	02 30       	cpi	r16, 0x02	; 2
 1b4:	09 f4       	brne	.+2      	; 0x1b8 <main+0xee>
 1b6:	64 c0       	rjmp	.+200    	; 0x280 <main+0x1b6>
 1b8:	08 f4       	brcc	.+2      	; 0x1bc <main+0xf2>
 1ba:	4c c0       	rjmp	.+152    	; 0x254 <main+0x18a>
 1bc:	04 30       	cpi	r16, 0x04	; 4
 1be:	09 f4       	brne	.+2      	; 0x1c2 <main+0xf8>
 1c0:	56 c0       	rjmp	.+172    	; 0x26e <main+0x1a4>
 1c2:	08 f4       	brcc	.+2      	; 0x1c6 <main+0xfc>
 1c4:	66 c0       	rjmp	.+204    	; 0x292 <main+0x1c8>
 1c6:	05 30       	cpi	r16, 0x05	; 5
 1c8:	09 f0       	breq	.+2      	; 0x1cc <main+0x102>
 1ca:	6c c0       	rjmp	.+216    	; 0x2a4 <main+0x1da>
 1cc:	86 2d       	mov	r24, r6
 1ce:	b2 01       	movw	r22, r4
 1d0:	6b d0       	rcall	.+214    	; 0x2a8 <atoi>
 1d2:	68 2f       	mov	r22, r24
 1d4:	80 e0       	ldi	r24, 0x00	; 0
 1d6:	91 e0       	ldi	r25, 0x01	; 1
 1d8:	27 d1       	rcall	.+590    	; 0x428 <setLedDutyCycle>
 1da:	06 e0       	ldi	r16, 0x06	; 6
 1dc:	f5 01       	movw	r30, r10
 1de:	8c 2d       	mov	r24, r12
 1e0:	11 92       	st	Z+, r1
 1e2:	8a 95       	dec	r24
 1e4:	e9 f7       	brne	.-6      	; 0x1e0 <main+0x116>
 1e6:	e1 2c       	mov	r14, r1
 1e8:	a8 cf       	rjmp	.-176    	; 0x13a <main+0x70>
 1ea:	ff 24       	eor	r15, r15
 1ec:	f3 94       	inc	r15
 1ee:	00 e0       	ldi	r16, 0x00	; 0
 1f0:	e1 2c       	mov	r14, r1
 1f2:	64 e1       	ldi	r22, 0x14	; 20
 1f4:	73 e1       	ldi	r23, 0x13	; 19
 1f6:	80 e0       	ldi	r24, 0x00	; 0
 1f8:	5a d0       	rcall	.+180    	; 0x2ae <uart_puts>
 1fa:	9f cf       	rjmp	.-194    	; 0x13a <main+0x70>
 1fc:	00 e0       	ldi	r16, 0x00	; 0
 1fe:	e1 2c       	mov	r14, r1
 200:	f4 01       	movw	r30, r8
 202:	87 2d       	mov	r24, r7
 204:	11 92       	st	Z+, r1
 206:	8a 95       	dec	r24
 208:	e9 f7       	brne	.-6      	; 0x204 <main+0x13a>
 20a:	f1 2c       	mov	r15, r1
 20c:	d1 2c       	mov	r13, r1
 20e:	95 cf       	rjmp	.-214    	; 0x13a <main+0x70>
 210:	f1 10       	cpse	r15, r1
 212:	b4 cf       	rjmp	.-152    	; 0x17c <main+0xb2>
 214:	ed 2d       	mov	r30, r13
 216:	f0 e0       	ldi	r31, 0x00	; 0
 218:	e1 5e       	subi	r30, 0xE1	; 225
 21a:	fe 4f       	sbci	r31, 0xFE	; 254
 21c:	10 53       	subi	r17, 0x30	; 48
 21e:	10 83       	st	Z, r17
 220:	d3 94       	inc	r13
 222:	8b cf       	rjmp	.-234    	; 0x13a <main+0x70>
 224:	00 e0       	ldi	r16, 0x00	; 0
 226:	e1 2c       	mov	r14, r1
 228:	80 e0       	ldi	r24, 0x00	; 0
 22a:	91 e0       	ldi	r25, 0x01	; 1
 22c:	00 d1       	rcall	.+512    	; 0x42e <sendCommand>
 22e:	ab cf       	rjmp	.-170    	; 0x186 <main+0xbc>
 230:	12 34       	cpi	r17, 0x42	; 66
 232:	21 f3       	breq	.-56     	; 0x1fc <main+0x132>
 234:	12 36       	cpi	r17, 0x62	; 98
 236:	11 f3       	breq	.-60     	; 0x1fc <main+0x132>
 238:	1c 32       	cpi	r17, 0x2C	; 44
 23a:	09 f0       	breq	.+2      	; 0x23e <main+0x174>
 23c:	9d cf       	rjmp	.-198    	; 0x178 <main+0xae>
 23e:	ff 24       	eor	r15, r15
 240:	f3 94       	inc	r15
 242:	86 2d       	mov	r24, r6
 244:	b2 01       	movw	r22, r4
 246:	30 d0       	rcall	.+96     	; 0x2a8 <atoi>
 248:	68 2f       	mov	r22, r24
 24a:	80 e0       	ldi	r24, 0x00	; 0
 24c:	91 e0       	ldi	r25, 0x01	; 1
 24e:	07 d1       	rcall	.+526    	; 0x45e <setLedID>
 250:	01 e0       	ldi	r16, 0x01	; 1
 252:	c4 cf       	rjmp	.-120    	; 0x1dc <main+0x112>
 254:	00 23       	and	r16, r16
 256:	a9 f3       	breq	.-22     	; 0x242 <main+0x178>
 258:	01 30       	cpi	r16, 0x01	; 1
 25a:	21 f5       	brne	.+72     	; 0x2a4 <main+0x1da>
 25c:	86 2d       	mov	r24, r6
 25e:	b2 01       	movw	r22, r4
 260:	23 d0       	rcall	.+70     	; 0x2a8 <atoi>
 262:	68 2f       	mov	r22, r24
 264:	80 e0       	ldi	r24, 0x00	; 0
 266:	91 e0       	ldi	r25, 0x01	; 1
 268:	fd d0       	rcall	.+506    	; 0x464 <setLedState>
 26a:	02 e0       	ldi	r16, 0x02	; 2
 26c:	b7 cf       	rjmp	.-146    	; 0x1dc <main+0x112>
 26e:	86 2d       	mov	r24, r6
 270:	b2 01       	movw	r22, r4
 272:	1a d0       	rcall	.+52     	; 0x2a8 <atoi>
 274:	bc 01       	movw	r22, r24
 276:	80 e0       	ldi	r24, 0x00	; 0
 278:	91 e0       	ldi	r25, 0x01	; 1
 27a:	f7 d0       	rcall	.+494    	; 0x46a <setLedFrequency>
 27c:	05 e0       	ldi	r16, 0x05	; 5
 27e:	ae cf       	rjmp	.-164    	; 0x1dc <main+0x112>
 280:	86 2d       	mov	r24, r6
 282:	b2 01       	movw	r22, r4
 284:	11 d0       	rcall	.+34     	; 0x2a8 <atoi>
 286:	68 2f       	mov	r22, r24
 288:	80 e0       	ldi	r24, 0x00	; 0
 28a:	91 e0       	ldi	r25, 0x01	; 1
 28c:	f2 d0       	rcall	.+484    	; 0x472 <setLedMode>
 28e:	03 e0       	ldi	r16, 0x03	; 3
 290:	a5 cf       	rjmp	.-182    	; 0x1dc <main+0x112>
 292:	86 2d       	mov	r24, r6
 294:	b2 01       	movw	r22, r4
 296:	08 d0       	rcall	.+16     	; 0x2a8 <atoi>
 298:	68 2f       	mov	r22, r24
 29a:	80 e0       	ldi	r24, 0x00	; 0
 29c:	91 e0       	ldi	r25, 0x01	; 1
 29e:	ec d0       	rcall	.+472    	; 0x478 <setLedIntensity>
 2a0:	04 e0       	ldi	r16, 0x04	; 4
 2a2:	9c cf       	rjmp	.-200    	; 0x1dc <main+0x112>
 2a4:	0f 5f       	subi	r16, 0xFF	; 255
 2a6:	9a cf       	rjmp	.-204    	; 0x1dc <main+0x112>

Disassembly of section .text.nrf24_ce_digitalWrite.part.0:

00000992 <nrf24_ce_digitalWrite.part.0>:
 992:	28 9a       	sbi	0x05, 0	; 5
 994:	08 95       	ret

Disassembly of section .text.nrf24_csn_digitalWrite.part.1:

000004d6 <nrf24_csn_digitalWrite.part.1>:
 4d6:	2a 9a       	sbi	0x05, 2	; 5
 4d8:	08 95       	ret

Disassembly of section .text.nrf24_getStatus:

00000a7a <nrf24_getStatus>:
 a7a:	cf 93       	push	r28
 a7c:	2a 98       	cbi	0x05, 2	; 5
 a7e:	8d b5       	in	r24, 0x2d	; 45
 a80:	8f ef       	ldi	r24, 0xFF	; 255
 a82:	8e bd       	out	0x2e, r24	; 46
 a84:	0d b4       	in	r0, 0x2d	; 45
 a86:	07 fe       	sbrs	r0, 7
 a88:	fd cf       	rjmp	.-6      	; 0xa84 <nrf24_getStatus+0xa>
 a8a:	ce b5       	in	r28, 0x2e	; 46
 a8c:	24 dd       	rcall	.-1464   	; 0x4d6 <nrf24_csn_digitalWrite.part.1>
 a8e:	8c 2f       	mov	r24, r28
 a90:	cf 91       	pop	r28
 a92:	08 95       	ret

Disassembly of section .text.nrf24_isSending:

000005da <nrf24_isSending>:
 5da:	4f d2       	rcall	.+1182   	; 0xa7a <nrf24_getStatus>
 5dc:	98 2f       	mov	r25, r24
 5de:	90 73       	andi	r25, 0x30	; 48
 5e0:	81 e0       	ldi	r24, 0x01	; 1
 5e2:	09 f0       	breq	.+2      	; 0x5e6 <nrf24_isSending+0xc>
 5e4:	80 e0       	ldi	r24, 0x00	; 0
 5e6:	08 95       	ret

Disassembly of section .text.nrf24_transmitSync:

000009b2 <nrf24_transmitSync>:
 9b2:	4f 92       	push	r4
 9b4:	5f 92       	push	r5
 9b6:	6f 92       	push	r6
 9b8:	8f 92       	push	r8
 9ba:	9f 92       	push	r9
 9bc:	af 92       	push	r10
 9be:	bf 92       	push	r11
 9c0:	cf 92       	push	r12
 9c2:	df 92       	push	r13
 9c4:	ef 92       	push	r14
 9c6:	0f 93       	push	r16
 9c8:	1f 93       	push	r17
 9ca:	cf 93       	push	r28
 9cc:	df 93       	push	r29
 9ce:	00 d0       	rcall	.+0      	; 0x9d0 <nrf24_transmitSync+0x1e>
 9d0:	cd b7       	in	r28, 0x3d	; 61
 9d2:	de b7       	in	r29, 0x3e	; 62
 9d4:	d8 2e       	mov	r13, r24
 9d6:	e9 2e       	mov	r14, r25
 9d8:	a6 2e       	mov	r10, r22
 9da:	67 e1       	ldi	r22, 0x17	; 23
 9dc:	73 e1       	ldi	r23, 0x13	; 19
 9de:	80 e0       	ldi	r24, 0x00	; 0
 9e0:	66 dc       	rcall	.-1844   	; 0x2ae <uart_puts>
 9e2:	aa 20       	and	r10, r10
 9e4:	99 f1       	breq	.+102    	; 0xa4c <nrf24_transmitSync+0x9a>
 9e6:	ce 01       	movw	r24, r28
 9e8:	01 96       	adiw	r24, 0x01	; 1
 9ea:	4c 01       	movw	r8, r24
 9ec:	2c 01       	movw	r4, r24
 9ee:	90 e8       	ldi	r25, 0x80	; 128
 9f0:	69 2e       	mov	r6, r25
 9f2:	0d 2d       	mov	r16, r13
 9f4:	1e 2d       	mov	r17, r14
 9f6:	aa 94       	dec	r10
 9f8:	b1 2c       	mov	r11, r1
 9fa:	af ef       	ldi	r26, 0xFF	; 255
 9fc:	aa 1a       	sub	r10, r26
 9fe:	ba 0a       	sbc	r11, r26
 a00:	a0 0e       	add	r10, r16
 a02:	b1 1e       	adc	r11, r17
 a04:	8a e1       	ldi	r24, 0x1A	; 26
 a06:	c8 2e       	mov	r12, r24
 a08:	83 e1       	ldi	r24, 0x13	; 19
 a0a:	d8 2e       	mov	r13, r24
 a0c:	80 e0       	ldi	r24, 0x00	; 0
 a0e:	e8 2e       	mov	r14, r24
 a10:	f8 01       	movw	r30, r16
 a12:	80 81       	ld	r24, Z
 a14:	9d b5       	in	r25, 0x2d	; 45
 a16:	8e bd       	out	0x2e, r24	; 46
 a18:	0d b4       	in	r0, 0x2d	; 45
 a1a:	07 fe       	sbrs	r0, 7
 a1c:	fd cf       	rjmp	.-6      	; 0xa18 <nrf24_transmitSync+0x66>
 a1e:	8e b5       	in	r24, 0x2e	; 46
 a20:	0f 5f       	subi	r16, 0xFF	; 255
 a22:	1f 4f       	sbci	r17, 0xFF	; 255
 a24:	80 81       	ld	r24, Z
 a26:	1f 92       	push	r1
 a28:	8f 93       	push	r24
 a2a:	ef 92       	push	r14
 a2c:	df 92       	push	r13
 a2e:	cf 92       	push	r12
 a30:	9f 92       	push	r9
 a32:	8f 92       	push	r8
 a34:	3f d0       	rcall	.+126    	; 0xab4 <sprintf>
 a36:	86 2d       	mov	r24, r6
 a38:	b2 01       	movw	r22, r4
 a3a:	39 dc       	rcall	.-1934   	; 0x2ae <uart_puts>
 a3c:	0f b6       	in	r0, 0x3f	; 63
 a3e:	f8 94       	cli
 a40:	de bf       	out	0x3e, r29	; 62
 a42:	0f be       	out	0x3f, r0	; 63
 a44:	cd bf       	out	0x3d, r28	; 61
 a46:	0a 15       	cp	r16, r10
 a48:	1b 05       	cpc	r17, r11
 a4a:	11 f7       	brne	.-60     	; 0xa10 <nrf24_transmitSync+0x5e>
 a4c:	0f 90       	pop	r0
 a4e:	0f 90       	pop	r0
 a50:	df 91       	pop	r29
 a52:	cf 91       	pop	r28
 a54:	1f 91       	pop	r17
 a56:	0f 91       	pop	r16
 a58:	ef 90       	pop	r14
 a5a:	df 90       	pop	r13
 a5c:	cf 90       	pop	r12
 a5e:	bf 90       	pop	r11
 a60:	af 90       	pop	r10
 a62:	9f 90       	pop	r9
 a64:	8f 90       	pop	r8
 a66:	6f 90       	pop	r6
 a68:	5f 90       	pop	r5
 a6a:	4f 90       	pop	r4
 a6c:	08 95       	ret

Disassembly of section .text.nrf24_configRegister:

00000488 <nrf24_configRegister>:
 488:	2a 98       	cbi	0x05, 2	; 5
 48a:	8f 71       	andi	r24, 0x1F	; 31
 48c:	80 62       	ori	r24, 0x20	; 32
 48e:	9d b5       	in	r25, 0x2d	; 45
 490:	8e bd       	out	0x2e, r24	; 46
 492:	0d b4       	in	r0, 0x2d	; 45
 494:	07 fe       	sbrs	r0, 7
 496:	fd cf       	rjmp	.-6      	; 0x492 <nrf24_configRegister+0xa>
 498:	8e b5       	in	r24, 0x2e	; 46
 49a:	8d b5       	in	r24, 0x2d	; 45
 49c:	6e bd       	out	0x2e, r22	; 46
 49e:	0d b4       	in	r0, 0x2d	; 45
 4a0:	07 fe       	sbrs	r0, 7
 4a2:	fd cf       	rjmp	.-6      	; 0x49e <nrf24_configRegister+0x16>
 4a4:	8e b5       	in	r24, 0x2e	; 46
 4a6:	17 c0       	rjmp	.+46     	; 0x4d6 <nrf24_csn_digitalWrite.part.1>

Disassembly of section .text.nrf24_powerUpRx:

000004a8 <nrf24_powerUpRx>:
 4a8:	2a 98       	cbi	0x05, 2	; 5
 4aa:	8d b5       	in	r24, 0x2d	; 45
 4ac:	82 ee       	ldi	r24, 0xE2	; 226
 4ae:	8e bd       	out	0x2e, r24	; 46
 4b0:	0d b4       	in	r0, 0x2d	; 45
 4b2:	07 fe       	sbrs	r0, 7
 4b4:	fd cf       	rjmp	.-6      	; 0x4b0 <nrf24_powerUpRx+0x8>
 4b6:	8e b5       	in	r24, 0x2e	; 46
 4b8:	0e d0       	rcall	.+28     	; 0x4d6 <nrf24_csn_digitalWrite.part.1>
 4ba:	60 e7       	ldi	r22, 0x70	; 112
 4bc:	87 e0       	ldi	r24, 0x07	; 7
 4be:	e4 df       	rcall	.-56     	; 0x488 <nrf24_configRegister>
 4c0:	28 98       	cbi	0x05, 0	; 5
 4c2:	6b e0       	ldi	r22, 0x0B	; 11
 4c4:	80 e0       	ldi	r24, 0x00	; 0
 4c6:	e0 df       	rcall	.-64     	; 0x488 <nrf24_configRegister>
 4c8:	64 c2       	rjmp	.+1224   	; 0x992 <nrf24_ce_digitalWrite.part.0>

Disassembly of section .text.nrf24_config:

000002fa <nrf24_config>:
 2fa:	cf 93       	push	r28
 2fc:	df 93       	push	r29
 2fe:	c8 2f       	mov	r28, r24
 300:	d6 2f       	mov	r29, r22
 302:	6f e1       	ldi	r22, 0x1F	; 31
 304:	73 e1       	ldi	r23, 0x13	; 19
 306:	80 e0       	ldi	r24, 0x00	; 0
 308:	d2 df       	rcall	.-92     	; 0x2ae <uart_puts>
 30a:	d0 93 07 01 	sts	0x0107, r29	; 0x800107 <payload_len>
 30e:	6c 2f       	mov	r22, r28
 310:	85 e0       	ldi	r24, 0x05	; 5
 312:	ba d0       	rcall	.+372    	; 0x488 <nrf24_configRegister>
 314:	60 e0       	ldi	r22, 0x00	; 0
 316:	81 e1       	ldi	r24, 0x11	; 17
 318:	b7 d0       	rcall	.+366    	; 0x488 <nrf24_configRegister>
 31a:	60 91 07 01 	lds	r22, 0x0107	; 0x800107 <payload_len>
 31e:	82 e1       	ldi	r24, 0x12	; 18
 320:	b3 d0       	rcall	.+358    	; 0x488 <nrf24_configRegister>
 322:	60 e0       	ldi	r22, 0x00	; 0
 324:	83 e1       	ldi	r24, 0x13	; 19
 326:	b0 d0       	rcall	.+352    	; 0x488 <nrf24_configRegister>
 328:	60 e0       	ldi	r22, 0x00	; 0
 32a:	84 e1       	ldi	r24, 0x14	; 20
 32c:	ad d0       	rcall	.+346    	; 0x488 <nrf24_configRegister>
 32e:	60 e0       	ldi	r22, 0x00	; 0
 330:	85 e1       	ldi	r24, 0x15	; 21
 332:	aa d0       	rcall	.+340    	; 0x488 <nrf24_configRegister>
 334:	60 e0       	ldi	r22, 0x00	; 0
 336:	86 e1       	ldi	r24, 0x16	; 22
 338:	a7 d0       	rcall	.+334    	; 0x488 <nrf24_configRegister>
 33a:	66 e0       	ldi	r22, 0x06	; 6
 33c:	86 e0       	ldi	r24, 0x06	; 6
 33e:	a4 d0       	rcall	.+328    	; 0x488 <nrf24_configRegister>
 340:	68 e0       	ldi	r22, 0x08	; 8
 342:	80 e0       	ldi	r24, 0x00	; 0
 344:	a1 d0       	rcall	.+322    	; 0x488 <nrf24_configRegister>
 346:	60 e0       	ldi	r22, 0x00	; 0
 348:	81 e0       	ldi	r24, 0x01	; 1
 34a:	9e d0       	rcall	.+316    	; 0x488 <nrf24_configRegister>
 34c:	63 e0       	ldi	r22, 0x03	; 3
 34e:	82 e0       	ldi	r24, 0x02	; 2
 350:	9b d0       	rcall	.+310    	; 0x488 <nrf24_configRegister>
 352:	60 e0       	ldi	r22, 0x00	; 0
 354:	8c e1       	ldi	r24, 0x1C	; 28
 356:	98 d0       	rcall	.+304    	; 0x488 <nrf24_configRegister>
 358:	a7 d0       	rcall	.+334    	; 0x4a8 <nrf24_powerUpRx>
 35a:	6d e3       	ldi	r22, 0x3D	; 61
 35c:	73 e1       	ldi	r23, 0x13	; 19
 35e:	80 e0       	ldi	r24, 0x00	; 0
 360:	df 91       	pop	r29
 362:	cf 91       	pop	r28
 364:	a4 cf       	rjmp	.-184    	; 0x2ae <uart_puts>

Disassembly of section .text.nrf24_powerUpTx:

00000a6e <nrf24_powerUpTx>:
 a6e:	60 e7       	ldi	r22, 0x70	; 112
 a70:	87 e0       	ldi	r24, 0x07	; 7
 a72:	0a dd       	rcall	.-1516   	; 0x488 <nrf24_configRegister>
 a74:	6a e0       	ldi	r22, 0x0A	; 10
 a76:	80 e0       	ldi	r24, 0x00	; 0
 a78:	07 cd       	rjmp	.-1522   	; 0x488 <nrf24_configRegister>

Disassembly of section .text.nrf24_send:

000004f4 <nrf24_send>:
 4f4:	cf 93       	push	r28
 4f6:	df 93       	push	r29
 4f8:	ec 01       	movw	r28, r24
 4fa:	28 98       	cbi	0x05, 0	; 5
 4fc:	b8 d2       	rcall	.+1392   	; 0xa6e <nrf24_powerUpTx>
 4fe:	2a 98       	cbi	0x05, 2	; 5
 500:	8d b5       	in	r24, 0x2d	; 45
 502:	81 ee       	ldi	r24, 0xE1	; 225
 504:	8e bd       	out	0x2e, r24	; 46
 506:	0d b4       	in	r0, 0x2d	; 45
 508:	07 fe       	sbrs	r0, 7
 50a:	fd cf       	rjmp	.-6      	; 0x506 <nrf24_send+0x12>
 50c:	8e b5       	in	r24, 0x2e	; 46
 50e:	e3 df       	rcall	.-58     	; 0x4d6 <nrf24_csn_digitalWrite.part.1>
 510:	2a 98       	cbi	0x05, 2	; 5
 512:	8d b5       	in	r24, 0x2d	; 45
 514:	80 ea       	ldi	r24, 0xA0	; 160
 516:	8e bd       	out	0x2e, r24	; 46
 518:	0d b4       	in	r0, 0x2d	; 45
 51a:	07 fe       	sbrs	r0, 7
 51c:	fd cf       	rjmp	.-6      	; 0x518 <nrf24_send+0x24>
 51e:	8e b5       	in	r24, 0x2e	; 46
 520:	60 91 07 01 	lds	r22, 0x0107	; 0x800107 <payload_len>
 524:	ce 01       	movw	r24, r28
 526:	45 d2       	rcall	.+1162   	; 0x9b2 <nrf24_transmitSync>
 528:	d6 df       	rcall	.-84     	; 0x4d6 <nrf24_csn_digitalWrite.part.1>
 52a:	df 91       	pop	r29
 52c:	cf 91       	pop	r28
 52e:	31 c2       	rjmp	.+1122   	; 0x992 <nrf24_ce_digitalWrite.part.0>

Disassembly of section .text.nrf24_writeRegister:

00000996 <nrf24_writeRegister>:
 996:	9b 01       	movw	r18, r22
 998:	2a 98       	cbi	0x05, 2	; 5
 99a:	8f 71       	andi	r24, 0x1F	; 31
 99c:	80 62       	ori	r24, 0x20	; 32
 99e:	9d b5       	in	r25, 0x2d	; 45
 9a0:	8e bd       	out	0x2e, r24	; 46
 9a2:	0d b4       	in	r0, 0x2d	; 45
 9a4:	07 fe       	sbrs	r0, 7
 9a6:	fd cf       	rjmp	.-6      	; 0x9a2 <nrf24_writeRegister+0xc>
 9a8:	8e b5       	in	r24, 0x2e	; 46
 9aa:	64 2f       	mov	r22, r20
 9ac:	c9 01       	movw	r24, r18
 9ae:	01 d0       	rcall	.+2      	; 0x9b2 <nrf24_transmitSync>
 9b0:	92 cd       	rjmp	.-1244   	; 0x4d6 <nrf24_csn_digitalWrite.part.1>

Disassembly of section .text.nrf24_rx_address:

000004ca <nrf24_rx_address>:
 4ca:	28 98       	cbi	0x05, 0	; 5
 4cc:	45 e0       	ldi	r20, 0x05	; 5
 4ce:	bc 01       	movw	r22, r24
 4d0:	8b e0       	ldi	r24, 0x0B	; 11
 4d2:	61 d2       	rcall	.+1218   	; 0x996 <nrf24_writeRegister>
 4d4:	5e c2       	rjmp	.+1212   	; 0x992 <nrf24_ce_digitalWrite.part.0>

Disassembly of section .text.nrf24_tx_address:

000004da <nrf24_tx_address>:
 4da:	cf 93       	push	r28
 4dc:	df 93       	push	r29
 4de:	ec 01       	movw	r28, r24
 4e0:	45 e0       	ldi	r20, 0x05	; 5
 4e2:	bc 01       	movw	r22, r24
 4e4:	8a e0       	ldi	r24, 0x0A	; 10
 4e6:	57 d2       	rcall	.+1198   	; 0x996 <nrf24_writeRegister>
 4e8:	45 e0       	ldi	r20, 0x05	; 5
 4ea:	be 01       	movw	r22, r28
 4ec:	80 e1       	ldi	r24, 0x10	; 16
 4ee:	df 91       	pop	r29
 4f0:	cf 91       	pop	r28
 4f2:	51 c2       	rjmp	.+1186   	; 0x996 <nrf24_writeRegister>

Disassembly of section .text.nrf24_init:

00000366 <nrf24_init>:
 366:	64 e4       	ldi	r22, 0x44	; 68
 368:	73 e1       	ldi	r23, 0x13	; 19
 36a:	80 e0       	ldi	r24, 0x00	; 0
 36c:	a0 df       	rcall	.-192    	; 0x2ae <uart_puts>
 36e:	20 9a       	sbi	0x04, 0	; 4
 370:	83 e1       	ldi	r24, 0x13	; 19
 372:	91 e0       	ldi	r25, 0x01	; 1
 374:	b2 d0       	rcall	.+356    	; 0x4da <nrf24_tx_address>
 376:	8e e0       	ldi	r24, 0x0E	; 14
 378:	91 e0       	ldi	r25, 0x01	; 1
 37a:	a7 d0       	rcall	.+334    	; 0x4ca <nrf24_rx_address>
 37c:	28 98       	cbi	0x05, 0	; 5
 37e:	ab d0       	rcall	.+342    	; 0x4d6 <nrf24_csn_digitalWrite.part.1>
 380:	6d e3       	ldi	r22, 0x3D	; 61
 382:	73 e1       	ldi	r23, 0x13	; 19
 384:	80 e0       	ldi	r24, 0x00	; 0
 386:	93 cf       	rjmp	.-218    	; 0x2ae <uart_puts>

Disassembly of section .text.uart_init:

00000410 <uart_init>:
 410:	10 92 c5 00 	sts	0x00C5, r1	; 0x8000c5 <__TEXT_REGION_LENGTH__+0x7f80c5>
 414:	87 e6       	ldi	r24, 0x67	; 103
 416:	80 93 c4 00 	sts	0x00C4, r24	; 0x8000c4 <__TEXT_REGION_LENGTH__+0x7f80c4>
 41a:	86 e0       	ldi	r24, 0x06	; 6
 41c:	80 93 c2 00 	sts	0x00C2, r24	; 0x8000c2 <__TEXT_REGION_LENGTH__+0x7f80c2>
 420:	88 e1       	ldi	r24, 0x18	; 24
 422:	80 93 c1 00 	sts	0x00C1, r24	; 0x8000c1 <__TEXT_REGION_LENGTH__+0x7f80c1>
 426:	08 95       	ret

Disassembly of section .text.uart_putc:

000002ec <uart_putc>:
 2ec:	90 91 c0 00 	lds	r25, 0x00C0	; 0x8000c0 <__TEXT_REGION_LENGTH__+0x7f80c0>
 2f0:	95 ff       	sbrs	r25, 5
 2f2:	fc cf       	rjmp	.-8      	; 0x2ec <uart_putc>
 2f4:	80 93 c6 00 	sts	0x00C6, r24	; 0x8000c6 <__TEXT_REGION_LENGTH__+0x7f80c6>
 2f8:	08 95       	ret

Disassembly of section .text.uart_puts:

000002ae <uart_puts>:
 2ae:	9b 01       	movw	r18, r22
 2b0:	48 2f       	mov	r20, r24
 2b2:	f9 01       	movw	r30, r18
 2b4:	94 91       	lpm	r25, Z
 2b6:	47 fd       	sbrc	r20, 7
 2b8:	90 81       	ld	r25, Z
 2ba:	99 23       	and	r25, r25
 2bc:	79 f0       	breq	.+30     	; 0x2dc <uart_puts+0x2e>
 2be:	2f 5f       	subi	r18, 0xFF	; 255
 2c0:	3f 4f       	sbci	r19, 0xFF	; 255
 2c2:	4f 4f       	sbci	r20, 0xFF	; 255
 2c4:	80 91 c0 00 	lds	r24, 0x00C0	; 0x8000c0 <__TEXT_REGION_LENGTH__+0x7f80c0>
 2c8:	85 ff       	sbrs	r24, 5
 2ca:	fc cf       	rjmp	.-8      	; 0x2c4 <uart_puts+0x16>
 2cc:	90 93 c6 00 	sts	0x00C6, r25	; 0x8000c6 <__TEXT_REGION_LENGTH__+0x7f80c6>
 2d0:	f9 01       	movw	r30, r18
 2d2:	94 91       	lpm	r25, Z
 2d4:	47 fd       	sbrc	r20, 7
 2d6:	90 81       	ld	r25, Z
 2d8:	91 11       	cpse	r25, r1
 2da:	f1 cf       	rjmp	.-30     	; 0x2be <uart_puts+0x10>
 2dc:	08 95       	ret

Disassembly of section .text.uart_getc:

000002de <uart_getc>:
 2de:	80 91 c0 00 	lds	r24, 0x00C0	; 0x8000c0 <__TEXT_REGION_LENGTH__+0x7f80c0>
 2e2:	87 ff       	sbrs	r24, 7
 2e4:	fc cf       	rjmp	.-8      	; 0x2de <uart_getc>
 2e6:	80 91 c6 00 	lds	r24, 0x00C6	; 0x8000c6 <__TEXT_REGION_LENGTH__+0x7f80c6>
 2ea:	08 95       	ret

Disassembly of section .text.libgcc.div:

00000afa <__udivmodsi4>:
 afa:	a1 e2       	ldi	r26, 0x21	; 33
 afc:	1a 2e       	mov	r1, r26
 afe:	aa 1b       	sub	r26, r26
 b00:	bb 1b       	sub	r27, r27
 b02:	fd 01       	movw	r30, r26
 b04:	0d c0       	rjmp	.+26     	; 0xb20 <__udivmodsi4_ep>

00000b06 <__udivmodsi4_loop>:
 b06:	aa 1f       	adc	r26, r26
 b08:	bb 1f       	adc	r27, r27
 b0a:	ee 1f       	adc	r30, r30
 b0c:	ff 1f       	adc	r31, r31
 b0e:	a2 17       	cp	r26, r18
 b10:	b3 07       	cpc	r27, r19
 b12:	e4 07       	cpc	r30, r20
 b14:	f5 07       	cpc	r31, r21
 b16:	20 f0       	brcs	.+8      	; 0xb20 <__udivmodsi4_ep>
 b18:	a2 1b       	sub	r26, r18
 b1a:	b3 0b       	sbc	r27, r19
 b1c:	e4 0b       	sbc	r30, r20
 b1e:	f5 0b       	sbc	r31, r21

00000b20 <__udivmodsi4_ep>:
 b20:	66 1f       	adc	r22, r22
 b22:	77 1f       	adc	r23, r23
 b24:	88 1f       	adc	r24, r24
 b26:	99 1f       	adc	r25, r25
 b28:	1a 94       	dec	r1
 b2a:	69 f7       	brne	.-38     	; 0xb06 <__udivmodsi4_loop>
 b2c:	60 95       	com	r22
 b2e:	70 95       	com	r23
 b30:	80 95       	com	r24
 b32:	90 95       	com	r25
 b34:	9b 01       	movw	r18, r22
 b36:	ac 01       	movw	r20, r24
 b38:	bd 01       	movw	r22, r26
 b3a:	cf 01       	movw	r24, r30
 b3c:	08 95       	ret

Disassembly of section .text.avrlibc:

000002a8 <atoi>:
 2a8:	ea d0       	rcall	.+468    	; 0x47e <atol>
 2aa:	cb 01       	movw	r24, r22
 2ac:	08 95       	ret

Disassembly of section .text.avrlibc:

0000047e <atol>:
 47e:	2a e0       	ldi	r18, 0x0A	; 10
 480:	30 e0       	ldi	r19, 0x00	; 0
 482:	40 e0       	ldi	r20, 0x00	; 0
 484:	50 e0       	ldi	r21, 0x00	; 0
 486:	1a c1       	rjmp	.+564    	; 0x6bc <strtol>

Disassembly of section .text.avrlibc:

000006bc <strtol>:
 6bc:	2f 92       	push	r2
 6be:	3f 92       	push	r3
 6c0:	4f 92       	push	r4
 6c2:	5f 92       	push	r5
 6c4:	6f 92       	push	r6
 6c6:	7f 92       	push	r7
 6c8:	8f 92       	push	r8
 6ca:	af 92       	push	r10
 6cc:	bf 92       	push	r11
 6ce:	cf 92       	push	r12
 6d0:	df 92       	push	r13
 6d2:	ef 92       	push	r14
 6d4:	0f 93       	push	r16
 6d6:	1f 93       	push	r17
 6d8:	cf 93       	push	r28
 6da:	df 93       	push	r29
 6dc:	00 d0       	rcall	.+0      	; 0x6de <strtol+0x22>
 6de:	00 d0       	rcall	.+0      	; 0x6e0 <strtol+0x24>
 6e0:	00 d0       	rcall	.+0      	; 0x6e2 <strtol+0x26>
 6e2:	cd b7       	in	r28, 0x3d	; 61
 6e4:	de b7       	in	r29, 0x3e	; 62
 6e6:	3b 01       	movw	r6, r22
 6e8:	88 2e       	mov	r8, r24
 6ea:	5a 01       	movw	r10, r20
 6ec:	19 01       	movw	r2, r18
 6ee:	41 15       	cp	r20, r1
 6f0:	51 05       	cpc	r21, r1
 6f2:	21 f0       	breq	.+8      	; 0x6fc <strtol+0x40>
 6f4:	fa 01       	movw	r30, r20
 6f6:	60 83       	st	Z, r22
 6f8:	71 83       	std	Z+1, r23	; 0x01
 6fa:	82 83       	std	Z+2, r24	; 0x02
 6fc:	21 14       	cp	r2, r1
 6fe:	31 04       	cpc	r3, r1
 700:	29 f0       	breq	.+10     	; 0x70c <strtol+0x50>
 702:	c1 01       	movw	r24, r2
 704:	02 97       	sbiw	r24, 0x02	; 2
 706:	83 97       	sbiw	r24, 0x23	; 35
 708:	08 f0       	brcs	.+2      	; 0x70c <strtol+0x50>
 70a:	17 c1       	rjmp	.+558    	; 0x93a <__stack+0x3b>
 70c:	e8 2c       	mov	r14, r8
 70e:	63 01       	movw	r12, r6
 710:	ff ef       	ldi	r31, 0xFF	; 255
 712:	cf 1a       	sub	r12, r31
 714:	df 0a       	sbc	r13, r31
 716:	ef 0a       	sbc	r14, r31
 718:	f3 01       	movw	r30, r6
 71a:	14 91       	lpm	r17, Z
 71c:	87 fc       	sbrc	r8, 7
 71e:	10 81       	ld	r17, Z
 720:	81 2f       	mov	r24, r17
 722:	90 e0       	ldi	r25, 0x00	; 0
 724:	1b d2       	rcall	.+1078   	; 0xb5c <isspace>
 726:	4c 2d       	mov	r20, r12
 728:	3d 2d       	mov	r19, r13
 72a:	2e 2d       	mov	r18, r14
 72c:	89 2b       	or	r24, r25
 72e:	19 f0       	breq	.+6      	; 0x736 <strtol+0x7a>
 730:	36 01       	movw	r6, r12
 732:	8e 2c       	mov	r8, r14
 734:	eb cf       	rjmp	.-42     	; 0x70c <strtol+0x50>
 736:	1d 32       	cpi	r17, 0x2D	; 45
 738:	69 f4       	brne	.+26     	; 0x754 <strtol+0x98>
 73a:	e8 2c       	mov	r14, r8
 73c:	63 01       	movw	r12, r6
 73e:	52 e0       	ldi	r21, 0x02	; 2
 740:	c5 0e       	add	r12, r21
 742:	d1 1c       	adc	r13, r1
 744:	e1 1c       	adc	r14, r1
 746:	e4 2f       	mov	r30, r20
 748:	f3 2f       	mov	r31, r19
 74a:	14 91       	lpm	r17, Z
 74c:	27 fd       	sbrc	r18, 7
 74e:	10 81       	ld	r17, Z
 750:	01 e0       	ldi	r16, 0x01	; 1
 752:	0e c0       	rjmp	.+28     	; 0x770 <strtol+0xb4>
 754:	1b 32       	cpi	r17, 0x2B	; 43
 756:	59 f4       	brne	.+22     	; 0x76e <strtol+0xb2>
 758:	e8 2c       	mov	r14, r8
 75a:	63 01       	movw	r12, r6
 75c:	82 e0       	ldi	r24, 0x02	; 2
 75e:	c8 0e       	add	r12, r24
 760:	d1 1c       	adc	r13, r1
 762:	e1 1c       	adc	r14, r1
 764:	e4 2f       	mov	r30, r20
 766:	f3 2f       	mov	r31, r19
 768:	14 91       	lpm	r17, Z
 76a:	27 fd       	sbrc	r18, 7
 76c:	10 81       	ld	r17, Z
 76e:	00 e0       	ldi	r16, 0x00	; 0
 770:	21 14       	cp	r2, r1
 772:	31 04       	cpc	r3, r1
 774:	09 f1       	breq	.+66     	; 0x7b8 <strtol+0xfc>
 776:	90 e1       	ldi	r25, 0x10	; 16
 778:	29 16       	cp	r2, r25
 77a:	31 04       	cpc	r3, r1
 77c:	29 f4       	brne	.+10     	; 0x788 <strtol+0xcc>
 77e:	3e c0       	rjmp	.+124    	; 0x7fc <strtol+0x140>
 780:	10 e3       	ldi	r17, 0x30	; 48
 782:	21 14       	cp	r2, r1
 784:	31 04       	cpc	r3, r1
 786:	21 f1       	breq	.+72     	; 0x7d0 <strtol+0x114>
 788:	f8 e0       	ldi	r31, 0x08	; 8
 78a:	2f 16       	cp	r2, r31
 78c:	31 04       	cpc	r3, r1
 78e:	01 f1       	breq	.+64     	; 0x7d0 <strtol+0x114>
 790:	54 f4       	brge	.+20     	; 0x7a6 <strtol+0xea>
 792:	32 e0       	ldi	r19, 0x02	; 2
 794:	23 16       	cp	r2, r19
 796:	31 04       	cpc	r3, r1
 798:	21 f5       	brne	.+72     	; 0x7e2 <strtol+0x126>
 79a:	41 2c       	mov	r4, r1
 79c:	51 2c       	mov	r5, r1
 79e:	61 2c       	mov	r6, r1
 7a0:	50 e4       	ldi	r21, 0x40	; 64
 7a2:	75 2e       	mov	r7, r21
 7a4:	4a c0       	rjmp	.+148    	; 0x83a <__DATA_REGION_LENGTH__+0x3a>
 7a6:	4a e0       	ldi	r20, 0x0A	; 10
 7a8:	24 16       	cp	r2, r20
 7aa:	31 04       	cpc	r3, r1
 7ac:	39 f0       	breq	.+14     	; 0x7bc <strtol+0x100>
 7ae:	50 e1       	ldi	r21, 0x10	; 16
 7b0:	25 16       	cp	r2, r21
 7b2:	31 04       	cpc	r3, r1
 7b4:	b1 f4       	brne	.+44     	; 0x7e2 <strtol+0x126>
 7b6:	3c c0       	rjmp	.+120    	; 0x830 <__DATA_REGION_LENGTH__+0x30>
 7b8:	10 33       	cpi	r17, 0x30	; 48
 7ba:	11 f1       	breq	.+68     	; 0x800 <__DATA_REGION_LENGTH__>
 7bc:	3a e0       	ldi	r19, 0x0A	; 10
 7be:	23 2e       	mov	r2, r19
 7c0:	31 2c       	mov	r3, r1
 7c2:	4c ec       	ldi	r20, 0xCC	; 204
 7c4:	44 2e       	mov	r4, r20
 7c6:	54 2c       	mov	r5, r4
 7c8:	64 2c       	mov	r6, r4
 7ca:	4c e0       	ldi	r20, 0x0C	; 12
 7cc:	74 2e       	mov	r7, r20
 7ce:	35 c0       	rjmp	.+106    	; 0x83a <__DATA_REGION_LENGTH__+0x3a>
 7d0:	98 e0       	ldi	r25, 0x08	; 8
 7d2:	29 2e       	mov	r2, r25
 7d4:	31 2c       	mov	r3, r1
 7d6:	41 2c       	mov	r4, r1
 7d8:	51 2c       	mov	r5, r1
 7da:	61 2c       	mov	r6, r1
 7dc:	20 e1       	ldi	r18, 0x10	; 16
 7de:	72 2e       	mov	r7, r18
 7e0:	2c c0       	rjmp	.+88     	; 0x83a <__DATA_REGION_LENGTH__+0x3a>
 7e2:	60 e0       	ldi	r22, 0x00	; 0
 7e4:	70 e0       	ldi	r23, 0x00	; 0
 7e6:	80 e0       	ldi	r24, 0x00	; 0
 7e8:	90 e8       	ldi	r25, 0x80	; 128
 7ea:	91 01       	movw	r18, r2
 7ec:	03 2c       	mov	r0, r3
 7ee:	00 0c       	add	r0, r0
 7f0:	44 0b       	sbc	r20, r20
 7f2:	55 0b       	sbc	r21, r21
 7f4:	82 d1       	rcall	.+772    	; 0xafa <__udivmodsi4>
 7f6:	29 01       	movw	r4, r18
 7f8:	3a 01       	movw	r6, r20
 7fa:	1f c0       	rjmp	.+62     	; 0x83a <__DATA_REGION_LENGTH__+0x3a>
 7fc:	10 33       	cpi	r17, 0x30	; 48
 7fe:	c1 f4       	brne	.+48     	; 0x830 <__DATA_REGION_LENGTH__+0x30>
 800:	f6 01       	movw	r30, r12
 802:	84 91       	lpm	r24, Z
 804:	e7 fc       	sbrc	r14, 7
 806:	80 81       	ld	r24, Z
 808:	8f 7d       	andi	r24, 0xDF	; 223
 80a:	88 35       	cpi	r24, 0x58	; 88
 80c:	09 f0       	breq	.+2      	; 0x810 <__DATA_REGION_LENGTH__+0x10>
 80e:	b8 cf       	rjmp	.-144    	; 0x780 <strtol+0xc4>
 810:	ae 2d       	mov	r26, r14
 812:	c6 01       	movw	r24, r12
 814:	01 96       	adiw	r24, 0x01	; 1
 816:	a1 1d       	adc	r26, r1
 818:	fc 01       	movw	r30, r24
 81a:	14 91       	lpm	r17, Z
 81c:	a7 fd       	sbrc	r26, 7
 81e:	10 81       	ld	r17, Z
 820:	e2 e0       	ldi	r30, 0x02	; 2
 822:	ce 0e       	add	r12, r30
 824:	d1 1c       	adc	r13, r1
 826:	e1 1c       	adc	r14, r1
 828:	02 60       	ori	r16, 0x02	; 2
 82a:	60 e1       	ldi	r22, 0x10	; 16
 82c:	26 2e       	mov	r2, r22
 82e:	31 2c       	mov	r3, r1
 830:	41 2c       	mov	r4, r1
 832:	51 2c       	mov	r5, r1
 834:	61 2c       	mov	r6, r1
 836:	88 e0       	ldi	r24, 0x08	; 8
 838:	78 2e       	mov	r7, r24
 83a:	a0 e0       	ldi	r26, 0x00	; 0
 83c:	60 e0       	ldi	r22, 0x00	; 0
 83e:	70 e0       	ldi	r23, 0x00	; 0
 840:	cb 01       	movw	r24, r22
 842:	91 01       	movw	r18, r2
 844:	03 2c       	mov	r0, r3
 846:	00 0c       	add	r0, r0
 848:	44 0b       	sbc	r20, r20
 84a:	55 0b       	sbc	r21, r21
 84c:	29 83       	std	Y+1, r18	; 0x01
 84e:	3a 83       	std	Y+2, r19	; 0x02
 850:	4b 83       	std	Y+3, r20	; 0x03
 852:	5c 83       	std	Y+4, r21	; 0x04
 854:	e0 ed       	ldi	r30, 0xD0	; 208
 856:	e1 0f       	add	r30, r17
 858:	ea 30       	cpi	r30, 0x0A	; 10
 85a:	60 f0       	brcs	.+24     	; 0x874 <__DATA_REGION_LENGTH__+0x74>
 85c:	2f eb       	ldi	r18, 0xBF	; 191
 85e:	21 0f       	add	r18, r17
 860:	2a 31       	cpi	r18, 0x1A	; 26
 862:	10 f4       	brcc	.+4      	; 0x868 <__DATA_REGION_LENGTH__+0x68>
 864:	e9 ec       	ldi	r30, 0xC9	; 201
 866:	05 c0       	rjmp	.+10     	; 0x872 <__DATA_REGION_LENGTH__+0x72>
 868:	2f e9       	ldi	r18, 0x9F	; 159
 86a:	21 0f       	add	r18, r17
 86c:	2a 31       	cpi	r18, 0x1A	; 26
 86e:	48 f5       	brcc	.+82     	; 0x8c2 <__DATA_REGION_LENGTH__+0xc2>
 870:	e9 ea       	ldi	r30, 0xA9	; 169
 872:	e1 0f       	add	r30, r17
 874:	2e 2f       	mov	r18, r30
 876:	30 e0       	ldi	r19, 0x00	; 0
 878:	22 15       	cp	r18, r2
 87a:	33 05       	cpc	r19, r3
 87c:	14 f5       	brge	.+68     	; 0x8c2 <__DATA_REGION_LENGTH__+0xc2>
 87e:	a7 fd       	sbrc	r26, 7
 880:	17 c0       	rjmp	.+46     	; 0x8b0 <__DATA_REGION_LENGTH__+0xb0>
 882:	46 16       	cp	r4, r22
 884:	57 06       	cpc	r5, r23
 886:	68 06       	cpc	r6, r24
 888:	79 06       	cpc	r7, r25
 88a:	78 f0       	brcs	.+30     	; 0x8aa <__DATA_REGION_LENGTH__+0xaa>
 88c:	29 81       	ldd	r18, Y+1	; 0x01
 88e:	3a 81       	ldd	r19, Y+2	; 0x02
 890:	4b 81       	ldd	r20, Y+3	; 0x03
 892:	5c 81       	ldd	r21, Y+4	; 0x04
 894:	54 d1       	rcall	.+680    	; 0xb3e <__mulsi3>
 896:	6e 0f       	add	r22, r30
 898:	71 1d       	adc	r23, r1
 89a:	81 1d       	adc	r24, r1
 89c:	91 1d       	adc	r25, r1
 89e:	61 30       	cpi	r22, 0x01	; 1
 8a0:	71 05       	cpc	r23, r1
 8a2:	81 05       	cpc	r24, r1
 8a4:	30 e8       	ldi	r19, 0x80	; 128
 8a6:	93 07       	cpc	r25, r19
 8a8:	10 f0       	brcs	.+4      	; 0x8ae <__DATA_REGION_LENGTH__+0xae>
 8aa:	af ef       	ldi	r26, 0xFF	; 255
 8ac:	01 c0       	rjmp	.+2      	; 0x8b0 <__DATA_REGION_LENGTH__+0xb0>
 8ae:	a1 e0       	ldi	r26, 0x01	; 1
 8b0:	f6 01       	movw	r30, r12
 8b2:	14 91       	lpm	r17, Z
 8b4:	e7 fc       	sbrc	r14, 7
 8b6:	10 81       	ld	r17, Z
 8b8:	4f ef       	ldi	r20, 0xFF	; 255
 8ba:	c4 1a       	sub	r12, r20
 8bc:	d4 0a       	sbc	r13, r20
 8be:	e4 0a       	sbc	r14, r20
 8c0:	c9 cf       	rjmp	.-110    	; 0x854 <__DATA_REGION_LENGTH__+0x54>
 8c2:	20 2f       	mov	r18, r16
 8c4:	21 70       	andi	r18, 0x01	; 1
 8c6:	a1 14       	cp	r10, r1
 8c8:	b1 04       	cpc	r11, r1
 8ca:	b1 f0       	breq	.+44     	; 0x8f8 <__DATA_REGION_LENGTH__+0xf8>
 8cc:	aa 23       	and	r26, r26
 8ce:	49 f0       	breq	.+18     	; 0x8e2 <__DATA_REGION_LENGTH__+0xe2>
 8d0:	51 e0       	ldi	r21, 0x01	; 1
 8d2:	c5 1a       	sub	r12, r21
 8d4:	d1 08       	sbc	r13, r1
 8d6:	e1 08       	sbc	r14, r1
 8d8:	f5 01       	movw	r30, r10
 8da:	c0 82       	st	Z, r12
 8dc:	d1 82       	std	Z+1, r13	; 0x01
 8de:	e2 82       	std	Z+2, r14	; 0x02
 8e0:	0b c0       	rjmp	.+22     	; 0x8f8 <__DATA_REGION_LENGTH__+0xf8>
 8e2:	01 ff       	sbrs	r16, 1
 8e4:	1d c0       	rjmp	.+58     	; 0x920 <__stack+0x21>
 8e6:	f2 e0       	ldi	r31, 0x02	; 2
 8e8:	cf 1a       	sub	r12, r31
 8ea:	d1 08       	sbc	r13, r1
 8ec:	e1 08       	sbc	r14, r1
 8ee:	f5 01       	movw	r30, r10
 8f0:	c0 82       	st	Z, r12
 8f2:	d1 82       	std	Z+1, r13	; 0x01
 8f4:	e2 82       	std	Z+2, r14	; 0x02
 8f6:	14 c0       	rjmp	.+40     	; 0x920 <__stack+0x21>
 8f8:	a7 ff       	sbrs	r26, 7
 8fa:	12 c0       	rjmp	.+36     	; 0x920 <__stack+0x21>
 8fc:	22 23       	and	r18, r18
 8fe:	29 f0       	breq	.+10     	; 0x90a <__stack+0xb>
 900:	60 e0       	ldi	r22, 0x00	; 0
 902:	70 e0       	ldi	r23, 0x00	; 0
 904:	80 e0       	ldi	r24, 0x00	; 0
 906:	90 e8       	ldi	r25, 0x80	; 128
 908:	04 c0       	rjmp	.+8      	; 0x912 <__stack+0x13>
 90a:	6f ef       	ldi	r22, 0xFF	; 255
 90c:	7f ef       	ldi	r23, 0xFF	; 255
 90e:	8f ef       	ldi	r24, 0xFF	; 255
 910:	9f e7       	ldi	r25, 0x7F	; 127
 912:	22 e2       	ldi	r18, 0x22	; 34
 914:	30 e0       	ldi	r19, 0x00	; 0
 916:	30 93 0d 01 	sts	0x010D, r19	; 0x80010d <errno+0x1>
 91a:	20 93 0c 01 	sts	0x010C, r18	; 0x80010c <errno>
 91e:	09 c0       	rjmp	.+18     	; 0x932 <__stack+0x33>
 920:	22 23       	and	r18, r18
 922:	81 f0       	breq	.+32     	; 0x944 <__stack+0x45>
 924:	90 95       	com	r25
 926:	80 95       	com	r24
 928:	70 95       	com	r23
 92a:	61 95       	neg	r22
 92c:	7f 4f       	sbci	r23, 0xFF	; 255
 92e:	8f 4f       	sbci	r24, 0xFF	; 255
 930:	9f 4f       	sbci	r25, 0xFF	; 255
 932:	46 2f       	mov	r20, r22
 934:	37 2f       	mov	r19, r23
 936:	28 2f       	mov	r18, r24
 938:	12 c0       	rjmp	.+36     	; 0x95e <__stack+0x5f>
 93a:	40 e0       	ldi	r20, 0x00	; 0
 93c:	30 e0       	ldi	r19, 0x00	; 0
 93e:	20 e0       	ldi	r18, 0x00	; 0
 940:	90 e0       	ldi	r25, 0x00	; 0
 942:	0d c0       	rjmp	.+26     	; 0x95e <__stack+0x5f>
 944:	97 ff       	sbrs	r25, 7
 946:	f5 cf       	rjmp	.-22     	; 0x932 <__stack+0x33>
 948:	82 e2       	ldi	r24, 0x22	; 34
 94a:	90 e0       	ldi	r25, 0x00	; 0
 94c:	90 93 0d 01 	sts	0x010D, r25	; 0x80010d <errno+0x1>
 950:	80 93 0c 01 	sts	0x010C, r24	; 0x80010c <errno>
 954:	6f ef       	ldi	r22, 0xFF	; 255
 956:	7f ef       	ldi	r23, 0xFF	; 255
 958:	8f ef       	ldi	r24, 0xFF	; 255
 95a:	9f e7       	ldi	r25, 0x7F	; 127
 95c:	ea cf       	rjmp	.-44     	; 0x932 <__stack+0x33>
 95e:	64 2f       	mov	r22, r20
 960:	73 2f       	mov	r23, r19
 962:	82 2f       	mov	r24, r18
 964:	26 96       	adiw	r28, 0x06	; 6
 966:	0f b6       	in	r0, 0x3f	; 63
 968:	f8 94       	cli
 96a:	de bf       	out	0x3e, r29	; 62
 96c:	0f be       	out	0x3f, r0	; 63
 96e:	cd bf       	out	0x3d, r28	; 61
 970:	df 91       	pop	r29
 972:	cf 91       	pop	r28
 974:	1f 91       	pop	r17
 976:	0f 91       	pop	r16
 978:	ef 90       	pop	r14
 97a:	df 90       	pop	r13
 97c:	cf 90       	pop	r12
 97e:	bf 90       	pop	r11
 980:	af 90       	pop	r10
 982:	8f 90       	pop	r8
 984:	7f 90       	pop	r7
 986:	6f 90       	pop	r6
 988:	5f 90       	pop	r5
 98a:	4f 90       	pop	r4
 98c:	3f 90       	pop	r3
 98e:	2f 90       	pop	r2
 990:	08 95       	ret

Disassembly of section .text.avrlibc:

00000b5c <isspace>:
 b5c:	91 11       	cpse	r25, r1
 b5e:	5e c2       	rjmp	.+1212   	; 0x101c <__ctype_isfalse>
 b60:	80 32       	cpi	r24, 0x20	; 32
 b62:	19 f0       	breq	.+6      	; 0xb6a <isspace+0xe>
 b64:	89 50       	subi	r24, 0x09	; 9
 b66:	85 50       	subi	r24, 0x05	; 5
 b68:	d0 f7       	brcc	.-12     	; 0xb5e <isspace+0x2>
 b6a:	08 95       	ret

Disassembly of section .text.avrlibc:

00000ab4 <sprintf>:
 ab4:	af e0       	ldi	r26, 0x0F	; 15
 ab6:	b0 e0       	ldi	r27, 0x00	; 0
 ab8:	ef e5       	ldi	r30, 0x5F	; 95
 aba:	f5 e0       	ldi	r31, 0x05	; 5
 abc:	97 c2       	rjmp	.+1326   	; 0xfec <__prologue_saves__+0x1c>
 abe:	0e 89       	ldd	r16, Y+22	; 0x16
 ac0:	1f 89       	ldd	r17, Y+23	; 0x17
 ac2:	86 e0       	ldi	r24, 0x06	; 6
 ac4:	8d 83       	std	Y+5, r24	; 0x05
 ac6:	1a 83       	std	Y+2, r17	; 0x02
 ac8:	09 83       	std	Y+1, r16	; 0x01
 aca:	8f ef       	ldi	r24, 0xFF	; 255
 acc:	9f e7       	ldi	r25, 0x7F	; 127
 ace:	9f 83       	std	Y+7, r25	; 0x07
 ad0:	8e 83       	std	Y+6, r24	; 0x06
 ad2:	9e 01       	movw	r18, r28
 ad4:	25 5e       	subi	r18, 0xE5	; 229
 ad6:	3f 4f       	sbci	r19, 0xFF	; 255
 ad8:	48 8d       	ldd	r20, Y+24	; 0x18
 ada:	59 8d       	ldd	r21, Y+25	; 0x19
 adc:	6a 8d       	ldd	r22, Y+26	; 0x1a
 ade:	ce 01       	movw	r24, r28
 ae0:	01 96       	adiw	r24, 0x01	; 1
 ae2:	44 d0       	rcall	.+136    	; 0xb6c <vfprintf>
 ae4:	e8 85       	ldd	r30, Y+8	; 0x08
 ae6:	f9 85       	ldd	r31, Y+9	; 0x09
 ae8:	e0 0f       	add	r30, r16
 aea:	f1 1f       	adc	r31, r17
 aec:	10 82       	st	Z, r1
 aee:	2f 96       	adiw	r28, 0x0f	; 15
 af0:	e4 e0       	ldi	r30, 0x04	; 4
 af2:	61 c2       	rjmp	.+1218   	; 0xfb6 <__epilogue_restores__+0x1c>

Disassembly of section .text.avrlibc:

00000b6c <vfprintf>:
 b6c:	2f 92       	push	r2
 b6e:	3f 92       	push	r3
 b70:	4f 92       	push	r4
 b72:	6f 92       	push	r6
 b74:	7f 92       	push	r7
 b76:	8f 92       	push	r8
 b78:	9f 92       	push	r9
 b7a:	af 92       	push	r10
 b7c:	bf 92       	push	r11
 b7e:	cf 92       	push	r12
 b80:	df 92       	push	r13
 b82:	ef 92       	push	r14
 b84:	ff 92       	push	r15
 b86:	0f 93       	push	r16
 b88:	1f 93       	push	r17
 b8a:	cf 93       	push	r28
 b8c:	df 93       	push	r29
 b8e:	cd b7       	in	r28, 0x3d	; 61
 b90:	de b7       	in	r29, 0x3e	; 62
 b92:	62 97       	sbiw	r28, 0x12	; 18
 b94:	0f b6       	in	r0, 0x3f	; 63
 b96:	f8 94       	cli
 b98:	de bf       	out	0x3e, r29	; 62
 b9a:	0f be       	out	0x3f, r0	; 63
 b9c:	cd bf       	out	0x3d, r28	; 61
 b9e:	6c 01       	movw	r12, r24
 ba0:	3a 01       	movw	r6, r20
 ba2:	86 2e       	mov	r8, r22
 ba4:	79 01       	movw	r14, r18
 ba6:	fc 01       	movw	r30, r24
 ba8:	10 86       	std	Z+8, r1	; 0x08
 baa:	17 82       	std	Z+7, r1	; 0x07
 bac:	84 81       	ldd	r24, Z+4	; 0x04
 bae:	81 ff       	sbrs	r24, 1
 bb0:	da c1       	rjmp	.+948    	; 0xf66 <vfprintf+0x3fa>
 bb2:	9e 01       	movw	r18, r28
 bb4:	2f 5f       	subi	r18, 0xFF	; 255
 bb6:	3f 4f       	sbci	r19, 0xFF	; 255
 bb8:	3d 87       	std	Y+13, r19	; 0x0d
 bba:	2c 87       	std	Y+12, r18	; 0x0c
 bbc:	c9 01       	movw	r24, r18
 bbe:	a0 e8       	ldi	r26, 0x80	; 128
 bc0:	88 8b       	std	Y+16, r24	; 0x10
 bc2:	99 8b       	std	Y+17, r25	; 0x11
 bc4:	aa 8b       	std	Y+18, r26	; 0x12
 bc6:	9f e3       	ldi	r25, 0x3F	; 63
 bc8:	99 2e       	mov	r9, r25
 bca:	f3 01       	movw	r30, r6
 bcc:	84 91       	lpm	r24, Z
 bce:	87 fc       	sbrc	r8, 7
 bd0:	80 81       	ld	r24, Z
 bd2:	88 23       	and	r24, r24
 bd4:	09 f4       	brne	.+2      	; 0xbd8 <vfprintf+0x6c>
 bd6:	c3 c1       	rjmp	.+902    	; 0xf5e <vfprintf+0x3f2>
 bd8:	48 2d       	mov	r20, r8
 bda:	93 01       	movw	r18, r6
 bdc:	2f 5f       	subi	r18, 0xFF	; 255
 bde:	3f 4f       	sbci	r19, 0xFF	; 255
 be0:	4f 4f       	sbci	r20, 0xFF	; 255
 be2:	85 32       	cpi	r24, 0x25	; 37
 be4:	19 f0       	breq	.+6      	; 0xbec <vfprintf+0x80>
 be6:	39 01       	movw	r6, r18
 be8:	84 2e       	mov	r8, r20
 bea:	0a c0       	rjmp	.+20     	; 0xc00 <vfprintf+0x94>
 bec:	f9 01       	movw	r30, r18
 bee:	84 91       	lpm	r24, Z
 bf0:	47 fd       	sbrc	r20, 7
 bf2:	80 81       	ld	r24, Z
 bf4:	92 e0       	ldi	r25, 0x02	; 2
 bf6:	69 0e       	add	r6, r25
 bf8:	71 1c       	adc	r7, r1
 bfa:	81 1c       	adc	r8, r1
 bfc:	85 32       	cpi	r24, 0x25	; 37
 bfe:	21 f4       	brne	.+8      	; 0xc08 <vfprintf+0x9c>
 c00:	b6 01       	movw	r22, r12
 c02:	90 e0       	ldi	r25, 0x00	; 0
 c04:	0e d2       	rcall	.+1052   	; 0x1022 <fputc>
 c06:	e1 cf       	rjmp	.-62     	; 0xbca <vfprintf+0x5e>
 c08:	b1 2c       	mov	r11, r1
 c0a:	00 e0       	ldi	r16, 0x00	; 0
 c0c:	10 e0       	ldi	r17, 0x00	; 0
 c0e:	10 32       	cpi	r17, 0x20	; 32
 c10:	a0 f4       	brcc	.+40     	; 0xc3a <vfprintf+0xce>
 c12:	8b 32       	cpi	r24, 0x2B	; 43
 c14:	69 f0       	breq	.+26     	; 0xc30 <vfprintf+0xc4>
 c16:	30 f4       	brcc	.+12     	; 0xc24 <vfprintf+0xb8>
 c18:	80 32       	cpi	r24, 0x20	; 32
 c1a:	59 f0       	breq	.+22     	; 0xc32 <vfprintf+0xc6>
 c1c:	83 32       	cpi	r24, 0x23	; 35
 c1e:	69 f4       	brne	.+26     	; 0xc3a <vfprintf+0xce>
 c20:	10 61       	ori	r17, 0x10	; 16
 c22:	2c c0       	rjmp	.+88     	; 0xc7c <vfprintf+0x110>
 c24:	8d 32       	cpi	r24, 0x2D	; 45
 c26:	39 f0       	breq	.+14     	; 0xc36 <vfprintf+0xca>
 c28:	80 33       	cpi	r24, 0x30	; 48
 c2a:	39 f4       	brne	.+14     	; 0xc3a <vfprintf+0xce>
 c2c:	11 60       	ori	r17, 0x01	; 1
 c2e:	26 c0       	rjmp	.+76     	; 0xc7c <vfprintf+0x110>
 c30:	12 60       	ori	r17, 0x02	; 2
 c32:	14 60       	ori	r17, 0x04	; 4
 c34:	23 c0       	rjmp	.+70     	; 0xc7c <vfprintf+0x110>
 c36:	18 60       	ori	r17, 0x08	; 8
 c38:	21 c0       	rjmp	.+66     	; 0xc7c <vfprintf+0x110>
 c3a:	17 fd       	sbrc	r17, 7
 c3c:	29 c0       	rjmp	.+82     	; 0xc90 <vfprintf+0x124>
 c3e:	90 ed       	ldi	r25, 0xD0	; 208
 c40:	98 0f       	add	r25, r24
 c42:	9a 30       	cpi	r25, 0x0A	; 10
 c44:	78 f4       	brcc	.+30     	; 0xc64 <vfprintf+0xf8>
 c46:	16 ff       	sbrs	r17, 6
 c48:	06 c0       	rjmp	.+12     	; 0xc56 <vfprintf+0xea>
 c4a:	aa e0       	ldi	r26, 0x0A	; 10
 c4c:	ba 9e       	mul	r11, r26
 c4e:	90 0d       	add	r25, r0
 c50:	11 24       	eor	r1, r1
 c52:	b9 2e       	mov	r11, r25
 c54:	13 c0       	rjmp	.+38     	; 0xc7c <vfprintf+0x110>
 c56:	ea e0       	ldi	r30, 0x0A	; 10
 c58:	0e 9f       	mul	r16, r30
 c5a:	90 0d       	add	r25, r0
 c5c:	11 24       	eor	r1, r1
 c5e:	09 2f       	mov	r16, r25
 c60:	10 62       	ori	r17, 0x20	; 32
 c62:	0c c0       	rjmp	.+24     	; 0xc7c <vfprintf+0x110>
 c64:	8e 32       	cpi	r24, 0x2E	; 46
 c66:	21 f4       	brne	.+8      	; 0xc70 <vfprintf+0x104>
 c68:	16 fd       	sbrc	r17, 6
 c6a:	79 c1       	rjmp	.+754    	; 0xf5e <vfprintf+0x3f2>
 c6c:	10 64       	ori	r17, 0x40	; 64
 c6e:	06 c0       	rjmp	.+12     	; 0xc7c <vfprintf+0x110>
 c70:	8c 36       	cpi	r24, 0x6C	; 108
 c72:	11 f4       	brne	.+4      	; 0xc78 <vfprintf+0x10c>
 c74:	10 68       	ori	r17, 0x80	; 128
 c76:	02 c0       	rjmp	.+4      	; 0xc7c <vfprintf+0x110>
 c78:	88 36       	cpi	r24, 0x68	; 104
 c7a:	51 f4       	brne	.+20     	; 0xc90 <vfprintf+0x124>
 c7c:	f3 01       	movw	r30, r6
 c7e:	84 91       	lpm	r24, Z
 c80:	87 fc       	sbrc	r8, 7
 c82:	80 81       	ld	r24, Z
 c84:	ff ef       	ldi	r31, 0xFF	; 255
 c86:	6f 1a       	sub	r6, r31
 c88:	7f 0a       	sbc	r7, r31
 c8a:	8f 0a       	sbc	r8, r31
 c8c:	81 11       	cpse	r24, r1
 c8e:	bf cf       	rjmp	.-130    	; 0xc0e <vfprintf+0xa2>
 c90:	98 2f       	mov	r25, r24
 c92:	9f 7d       	andi	r25, 0xDF	; 223
 c94:	95 54       	subi	r25, 0x45	; 69
 c96:	93 30       	cpi	r25, 0x03	; 3
 c98:	28 f4       	brcc	.+10     	; 0xca4 <vfprintf+0x138>
 c9a:	24 e0       	ldi	r18, 0x04	; 4
 c9c:	e2 0e       	add	r14, r18
 c9e:	f1 1c       	adc	r15, r1
 ca0:	99 82       	std	Y+1, r9	; 0x01
 ca2:	0f c0       	rjmp	.+30     	; 0xcc2 <vfprintf+0x156>
 ca4:	83 36       	cpi	r24, 0x63	; 99
 ca6:	31 f0       	breq	.+12     	; 0xcb4 <vfprintf+0x148>
 ca8:	83 37       	cpi	r24, 0x73	; 115
 caa:	91 f0       	breq	.+36     	; 0xcd0 <vfprintf+0x164>
 cac:	83 35       	cpi	r24, 0x53	; 83
 cae:	09 f0       	breq	.+2      	; 0xcb2 <vfprintf+0x146>
 cb0:	5f c0       	rjmp	.+190    	; 0xd70 <vfprintf+0x204>
 cb2:	26 c0       	rjmp	.+76     	; 0xd00 <vfprintf+0x194>
 cb4:	f7 01       	movw	r30, r14
 cb6:	80 81       	ld	r24, Z
 cb8:	89 83       	std	Y+1, r24	; 0x01
 cba:	97 01       	movw	r18, r14
 cbc:	2e 5f       	subi	r18, 0xFE	; 254
 cbe:	3f 4f       	sbci	r19, 0xFF	; 255
 cc0:	79 01       	movw	r14, r18
 cc2:	28 88       	ldd	r2, Y+16	; 0x10
 cc4:	39 88       	ldd	r3, Y+17	; 0x11
 cc6:	4a 88       	ldd	r4, Y+18	; 0x12
 cc8:	aa 24       	eor	r10, r10
 cca:	a3 94       	inc	r10
 ccc:	b1 2c       	mov	r11, r1
 cce:	16 c0       	rjmp	.+44     	; 0xcfc <vfprintf+0x190>
 cd0:	a7 01       	movw	r20, r14
 cd2:	4d 5f       	subi	r20, 0xFD	; 253
 cd4:	5f 4f       	sbci	r21, 0xFF	; 255
 cd6:	5f 87       	std	Y+15, r21	; 0x0f
 cd8:	4e 87       	std	Y+14, r20	; 0x0e
 cda:	f7 01       	movw	r30, r14
 cdc:	20 80       	ld	r2, Z
 cde:	31 80       	ldd	r3, Z+1	; 0x01
 ce0:	42 80       	ldd	r4, Z+2	; 0x02
 ce2:	16 ff       	sbrs	r17, 6
 ce4:	03 c0       	rjmp	.+6      	; 0xcec <vfprintf+0x180>
 ce6:	4b 2d       	mov	r20, r11
 ce8:	50 e0       	ldi	r21, 0x00	; 0
 cea:	02 c0       	rjmp	.+4      	; 0xcf0 <vfprintf+0x184>
 cec:	4f ef       	ldi	r20, 0xFF	; 255
 cee:	5f ef       	ldi	r21, 0xFF	; 255
 cf0:	84 2d       	mov	r24, r4
 cf2:	b1 01       	movw	r22, r2
 cf4:	30 d2       	rcall	.+1120   	; 0x1156 <strnlen>
 cf6:	5c 01       	movw	r10, r24
 cf8:	ee 84       	ldd	r14, Y+14	; 0x0e
 cfa:	ff 84       	ldd	r15, Y+15	; 0x0f
 cfc:	1f 77       	andi	r17, 0x7F	; 127
 cfe:	17 c0       	rjmp	.+46     	; 0xd2e <vfprintf+0x1c2>
 d00:	97 01       	movw	r18, r14
 d02:	2d 5f       	subi	r18, 0xFD	; 253
 d04:	3f 4f       	sbci	r19, 0xFF	; 255
 d06:	3f 87       	std	Y+15, r19	; 0x0f
 d08:	2e 87       	std	Y+14, r18	; 0x0e
 d0a:	f7 01       	movw	r30, r14
 d0c:	20 80       	ld	r2, Z
 d0e:	31 80       	ldd	r3, Z+1	; 0x01
 d10:	42 80       	ldd	r4, Z+2	; 0x02
 d12:	16 ff       	sbrs	r17, 6
 d14:	03 c0       	rjmp	.+6      	; 0xd1c <vfprintf+0x1b0>
 d16:	4b 2d       	mov	r20, r11
 d18:	50 e0       	ldi	r21, 0x00	; 0
 d1a:	02 c0       	rjmp	.+4      	; 0xd20 <vfprintf+0x1b4>
 d1c:	4f ef       	ldi	r20, 0xFF	; 255
 d1e:	5f ef       	ldi	r21, 0xFF	; 255
 d20:	84 2d       	mov	r24, r4
 d22:	b1 01       	movw	r22, r2
 d24:	18 d2       	rcall	.+1072   	; 0x1156 <strnlen>
 d26:	5c 01       	movw	r10, r24
 d28:	10 68       	ori	r17, 0x80	; 128
 d2a:	ee 84       	ldd	r14, Y+14	; 0x0e
 d2c:	ff 84       	ldd	r15, Y+15	; 0x0f
 d2e:	13 fd       	sbrc	r17, 3
 d30:	1b c0       	rjmp	.+54     	; 0xd68 <vfprintf+0x1fc>
 d32:	80 2f       	mov	r24, r16
 d34:	90 e0       	ldi	r25, 0x00	; 0
 d36:	a8 16       	cp	r10, r24
 d38:	b9 06       	cpc	r11, r25
 d3a:	b0 f4       	brcc	.+44     	; 0xd68 <vfprintf+0x1fc>
 d3c:	b6 01       	movw	r22, r12
 d3e:	80 e2       	ldi	r24, 0x20	; 32
 d40:	90 e0       	ldi	r25, 0x00	; 0
 d42:	6f d1       	rcall	.+734    	; 0x1022 <fputc>
 d44:	01 50       	subi	r16, 0x01	; 1
 d46:	f5 cf       	rjmp	.-22     	; 0xd32 <vfprintf+0x1c6>
 d48:	f1 01       	movw	r30, r2
 d4a:	84 91       	lpm	r24, Z
 d4c:	47 fc       	sbrc	r4, 7
 d4e:	80 81       	ld	r24, Z
 d50:	ff ef       	ldi	r31, 0xFF	; 255
 d52:	2f 1a       	sub	r2, r31
 d54:	3f 0a       	sbc	r3, r31
 d56:	4f 0a       	sbc	r4, r31
 d58:	b6 01       	movw	r22, r12
 d5a:	90 e0       	ldi	r25, 0x00	; 0
 d5c:	62 d1       	rcall	.+708    	; 0x1022 <fputc>
 d5e:	01 11       	cpse	r16, r1
 d60:	01 50       	subi	r16, 0x01	; 1
 d62:	21 e0       	ldi	r18, 0x01	; 1
 d64:	a2 1a       	sub	r10, r18
 d66:	b1 08       	sbc	r11, r1
 d68:	a1 14       	cp	r10, r1
 d6a:	b1 04       	cpc	r11, r1
 d6c:	69 f7       	brne	.-38     	; 0xd48 <vfprintf+0x1dc>
 d6e:	ee c0       	rjmp	.+476    	; 0xf4c <vfprintf+0x3e0>
 d70:	84 36       	cpi	r24, 0x64	; 100
 d72:	11 f0       	breq	.+4      	; 0xd78 <vfprintf+0x20c>
 d74:	89 36       	cpi	r24, 0x69	; 105
 d76:	69 f5       	brne	.+90     	; 0xdd2 <vfprintf+0x266>
 d78:	f7 01       	movw	r30, r14
 d7a:	17 ff       	sbrs	r17, 7
 d7c:	08 c0       	rjmp	.+16     	; 0xd8e <vfprintf+0x222>
 d7e:	60 81       	ld	r22, Z
 d80:	71 81       	ldd	r23, Z+1	; 0x01
 d82:	82 81       	ldd	r24, Z+2	; 0x02
 d84:	93 81       	ldd	r25, Z+3	; 0x03
 d86:	97 01       	movw	r18, r14
 d88:	2c 5f       	subi	r18, 0xFC	; 252
 d8a:	3f 4f       	sbci	r19, 0xFF	; 255
 d8c:	09 c0       	rjmp	.+18     	; 0xda0 <vfprintf+0x234>
 d8e:	60 81       	ld	r22, Z
 d90:	71 81       	ldd	r23, Z+1	; 0x01
 d92:	07 2e       	mov	r0, r23
 d94:	00 0c       	add	r0, r0
 d96:	88 0b       	sbc	r24, r24
 d98:	99 0b       	sbc	r25, r25
 d9a:	97 01       	movw	r18, r14
 d9c:	2e 5f       	subi	r18, 0xFE	; 254
 d9e:	3f 4f       	sbci	r19, 0xFF	; 255
 da0:	79 01       	movw	r14, r18
 da2:	1f 76       	andi	r17, 0x6F	; 111
 da4:	31 2e       	mov	r3, r17
 da6:	97 ff       	sbrs	r25, 7
 da8:	0a c0       	rjmp	.+20     	; 0xdbe <vfprintf+0x252>
 daa:	90 95       	com	r25
 dac:	80 95       	com	r24
 dae:	70 95       	com	r23
 db0:	61 95       	neg	r22
 db2:	7f 4f       	sbci	r23, 0xFF	; 255
 db4:	8f 4f       	sbci	r24, 0xFF	; 255
 db6:	9f 4f       	sbci	r25, 0xFF	; 255
 db8:	31 2f       	mov	r19, r17
 dba:	30 68       	ori	r19, 0x80	; 128
 dbc:	33 2e       	mov	r3, r19
 dbe:	2a e0       	ldi	r18, 0x0A	; 10
 dc0:	30 e0       	ldi	r19, 0x00	; 0
 dc2:	ae 01       	movw	r20, r28
 dc4:	4f 5f       	subi	r20, 0xFF	; 255
 dc6:	5f 4f       	sbci	r21, 0xFF	; 255
 dc8:	68 d1       	rcall	.+720    	; 0x109a <__ultoa_invert>
 dca:	48 2e       	mov	r4, r24
 dcc:	4c 85       	ldd	r20, Y+12	; 0x0c
 dce:	44 1a       	sub	r4, r20
 dd0:	49 c0       	rjmp	.+146    	; 0xe64 <vfprintf+0x2f8>
 dd2:	85 37       	cpi	r24, 0x75	; 117
 dd4:	29 f4       	brne	.+10     	; 0xde0 <vfprintf+0x274>
 dd6:	1f 7e       	andi	r17, 0xEF	; 239
 dd8:	a1 2e       	mov	r10, r17
 dda:	2a e0       	ldi	r18, 0x0A	; 10
 ddc:	30 e0       	ldi	r19, 0x00	; 0
 dde:	25 c0       	rjmp	.+74     	; 0xe2a <vfprintf+0x2be>
 de0:	51 2f       	mov	r21, r17
 de2:	59 7f       	andi	r21, 0xF9	; 249
 de4:	a5 2e       	mov	r10, r21
 de6:	8f 36       	cpi	r24, 0x6F	; 111
 de8:	c1 f0       	breq	.+48     	; 0xe1a <vfprintf+0x2ae>
 dea:	18 f4       	brcc	.+6      	; 0xdf2 <vfprintf+0x286>
 dec:	88 35       	cpi	r24, 0x58	; 88
 dee:	79 f0       	breq	.+30     	; 0xe0e <vfprintf+0x2a2>
 df0:	b6 c0       	rjmp	.+364    	; 0xf5e <vfprintf+0x3f2>
 df2:	80 37       	cpi	r24, 0x70	; 112
 df4:	19 f0       	breq	.+6      	; 0xdfc <vfprintf+0x290>
 df6:	88 37       	cpi	r24, 0x78	; 120
 df8:	21 f0       	breq	.+8      	; 0xe02 <vfprintf+0x296>
 dfa:	b1 c0       	rjmp	.+354    	; 0xf5e <vfprintf+0x3f2>
 dfc:	85 2f       	mov	r24, r21
 dfe:	80 61       	ori	r24, 0x10	; 16
 e00:	a8 2e       	mov	r10, r24
 e02:	a4 fe       	sbrs	r10, 4
 e04:	0d c0       	rjmp	.+26     	; 0xe20 <vfprintf+0x2b4>
 e06:	9a 2d       	mov	r25, r10
 e08:	94 60       	ori	r25, 0x04	; 4
 e0a:	a9 2e       	mov	r10, r25
 e0c:	09 c0       	rjmp	.+18     	; 0xe20 <vfprintf+0x2b4>
 e0e:	14 ff       	sbrs	r17, 4
 e10:	0a c0       	rjmp	.+20     	; 0xe26 <vfprintf+0x2ba>
 e12:	a5 2f       	mov	r26, r21
 e14:	a6 60       	ori	r26, 0x06	; 6
 e16:	aa 2e       	mov	r10, r26
 e18:	06 c0       	rjmp	.+12     	; 0xe26 <vfprintf+0x2ba>
 e1a:	28 e0       	ldi	r18, 0x08	; 8
 e1c:	30 e0       	ldi	r19, 0x00	; 0
 e1e:	05 c0       	rjmp	.+10     	; 0xe2a <vfprintf+0x2be>
 e20:	20 e1       	ldi	r18, 0x10	; 16
 e22:	30 e0       	ldi	r19, 0x00	; 0
 e24:	02 c0       	rjmp	.+4      	; 0xe2a <vfprintf+0x2be>
 e26:	20 e1       	ldi	r18, 0x10	; 16
 e28:	32 e0       	ldi	r19, 0x02	; 2
 e2a:	f7 01       	movw	r30, r14
 e2c:	a7 fe       	sbrs	r10, 7
 e2e:	08 c0       	rjmp	.+16     	; 0xe40 <vfprintf+0x2d4>
 e30:	60 81       	ld	r22, Z
 e32:	71 81       	ldd	r23, Z+1	; 0x01
 e34:	82 81       	ldd	r24, Z+2	; 0x02
 e36:	93 81       	ldd	r25, Z+3	; 0x03
 e38:	a7 01       	movw	r20, r14
 e3a:	4c 5f       	subi	r20, 0xFC	; 252
 e3c:	5f 4f       	sbci	r21, 0xFF	; 255
 e3e:	07 c0       	rjmp	.+14     	; 0xe4e <vfprintf+0x2e2>
 e40:	60 81       	ld	r22, Z
 e42:	71 81       	ldd	r23, Z+1	; 0x01
 e44:	80 e0       	ldi	r24, 0x00	; 0
 e46:	90 e0       	ldi	r25, 0x00	; 0
 e48:	a7 01       	movw	r20, r14
 e4a:	4e 5f       	subi	r20, 0xFE	; 254
 e4c:	5f 4f       	sbci	r21, 0xFF	; 255
 e4e:	7a 01       	movw	r14, r20
 e50:	ae 01       	movw	r20, r28
 e52:	4f 5f       	subi	r20, 0xFF	; 255
 e54:	5f 4f       	sbci	r21, 0xFF	; 255
 e56:	21 d1       	rcall	.+578    	; 0x109a <__ultoa_invert>
 e58:	48 2e       	mov	r4, r24
 e5a:	5c 85       	ldd	r21, Y+12	; 0x0c
 e5c:	45 1a       	sub	r4, r21
 e5e:	8a 2d       	mov	r24, r10
 e60:	8f 77       	andi	r24, 0x7F	; 127
 e62:	38 2e       	mov	r3, r24
 e64:	36 fe       	sbrs	r3, 6
 e66:	0d c0       	rjmp	.+26     	; 0xe82 <vfprintf+0x316>
 e68:	93 2d       	mov	r25, r3
 e6a:	9e 7f       	andi	r25, 0xFE	; 254
 e6c:	a9 2e       	mov	r10, r25
 e6e:	4b 14       	cp	r4, r11
 e70:	58 f4       	brcc	.+22     	; 0xe88 <vfprintf+0x31c>
 e72:	34 fe       	sbrs	r3, 4
 e74:	0b c0       	rjmp	.+22     	; 0xe8c <vfprintf+0x320>
 e76:	32 fc       	sbrc	r3, 2
 e78:	09 c0       	rjmp	.+18     	; 0xe8c <vfprintf+0x320>
 e7a:	a3 2d       	mov	r26, r3
 e7c:	ae 7e       	andi	r26, 0xEE	; 238
 e7e:	aa 2e       	mov	r10, r26
 e80:	05 c0       	rjmp	.+10     	; 0xe8c <vfprintf+0x320>
 e82:	14 2d       	mov	r17, r4
 e84:	a3 2c       	mov	r10, r3
 e86:	03 c0       	rjmp	.+6      	; 0xe8e <vfprintf+0x322>
 e88:	14 2d       	mov	r17, r4
 e8a:	01 c0       	rjmp	.+2      	; 0xe8e <vfprintf+0x322>
 e8c:	1b 2d       	mov	r17, r11
 e8e:	a4 fe       	sbrs	r10, 4
 e90:	0e c0       	rjmp	.+28     	; 0xeae <vfprintf+0x342>
 e92:	fe 01       	movw	r30, r28
 e94:	e4 0d       	add	r30, r4
 e96:	f1 1d       	adc	r31, r1
 e98:	80 81       	ld	r24, Z
 e9a:	80 33       	cpi	r24, 0x30	; 48
 e9c:	21 f4       	brne	.+8      	; 0xea6 <vfprintf+0x33a>
 e9e:	ea 2d       	mov	r30, r10
 ea0:	e9 7e       	andi	r30, 0xE9	; 233
 ea2:	ae 2e       	mov	r10, r30
 ea4:	08 c0       	rjmp	.+16     	; 0xeb6 <vfprintf+0x34a>
 ea6:	a2 fe       	sbrs	r10, 2
 ea8:	05 c0       	rjmp	.+10     	; 0xeb4 <vfprintf+0x348>
 eaa:	1e 5f       	subi	r17, 0xFE	; 254
 eac:	04 c0       	rjmp	.+8      	; 0xeb6 <vfprintf+0x34a>
 eae:	8a 2d       	mov	r24, r10
 eb0:	86 78       	andi	r24, 0x86	; 134
 eb2:	09 f0       	breq	.+2      	; 0xeb6 <vfprintf+0x34a>
 eb4:	1f 5f       	subi	r17, 0xFF	; 255
 eb6:	a3 fc       	sbrc	r10, 3
 eb8:	10 c0       	rjmp	.+32     	; 0xeda <vfprintf+0x36e>
 eba:	a0 fe       	sbrs	r10, 0
 ebc:	06 c0       	rjmp	.+12     	; 0xeca <vfprintf+0x35e>
 ebe:	10 17       	cp	r17, r16
 ec0:	80 f4       	brcc	.+32     	; 0xee2 <vfprintf+0x376>
 ec2:	04 0d       	add	r16, r4
 ec4:	b0 2e       	mov	r11, r16
 ec6:	b1 1a       	sub	r11, r17
 ec8:	0d c0       	rjmp	.+26     	; 0xee4 <vfprintf+0x378>
 eca:	10 17       	cp	r17, r16
 ecc:	58 f4       	brcc	.+22     	; 0xee4 <vfprintf+0x378>
 ece:	b6 01       	movw	r22, r12
 ed0:	80 e2       	ldi	r24, 0x20	; 32
 ed2:	90 e0       	ldi	r25, 0x00	; 0
 ed4:	a6 d0       	rcall	.+332    	; 0x1022 <fputc>
 ed6:	1f 5f       	subi	r17, 0xFF	; 255
 ed8:	f8 cf       	rjmp	.-16     	; 0xeca <vfprintf+0x35e>
 eda:	10 17       	cp	r17, r16
 edc:	18 f4       	brcc	.+6      	; 0xee4 <vfprintf+0x378>
 ede:	01 1b       	sub	r16, r17
 ee0:	02 c0       	rjmp	.+4      	; 0xee6 <vfprintf+0x37a>
 ee2:	b4 2c       	mov	r11, r4
 ee4:	00 e0       	ldi	r16, 0x00	; 0
 ee6:	a4 fe       	sbrs	r10, 4
 ee8:	0f c0       	rjmp	.+30     	; 0xf08 <vfprintf+0x39c>
 eea:	b6 01       	movw	r22, r12
 eec:	80 e3       	ldi	r24, 0x30	; 48
 eee:	90 e0       	ldi	r25, 0x00	; 0
 ef0:	98 d0       	rcall	.+304    	; 0x1022 <fputc>
 ef2:	a2 fe       	sbrs	r10, 2
 ef4:	16 c0       	rjmp	.+44     	; 0xf22 <vfprintf+0x3b6>
 ef6:	a1 fc       	sbrc	r10, 1
 ef8:	03 c0       	rjmp	.+6      	; 0xf00 <vfprintf+0x394>
 efa:	88 e7       	ldi	r24, 0x78	; 120
 efc:	90 e0       	ldi	r25, 0x00	; 0
 efe:	02 c0       	rjmp	.+4      	; 0xf04 <vfprintf+0x398>
 f00:	88 e5       	ldi	r24, 0x58	; 88
 f02:	90 e0       	ldi	r25, 0x00	; 0
 f04:	b6 01       	movw	r22, r12
 f06:	0c c0       	rjmp	.+24     	; 0xf20 <vfprintf+0x3b4>
 f08:	8a 2d       	mov	r24, r10
 f0a:	86 78       	andi	r24, 0x86	; 134
 f0c:	51 f0       	breq	.+20     	; 0xf22 <vfprintf+0x3b6>
 f0e:	a1 fe       	sbrs	r10, 1
 f10:	02 c0       	rjmp	.+4      	; 0xf16 <vfprintf+0x3aa>
 f12:	8b e2       	ldi	r24, 0x2B	; 43
 f14:	01 c0       	rjmp	.+2      	; 0xf18 <vfprintf+0x3ac>
 f16:	80 e2       	ldi	r24, 0x20	; 32
 f18:	a7 fc       	sbrc	r10, 7
 f1a:	8d e2       	ldi	r24, 0x2D	; 45
 f1c:	b6 01       	movw	r22, r12
 f1e:	90 e0       	ldi	r25, 0x00	; 0
 f20:	80 d0       	rcall	.+256    	; 0x1022 <fputc>
 f22:	4b 14       	cp	r4, r11
 f24:	30 f4       	brcc	.+12     	; 0xf32 <vfprintf+0x3c6>
 f26:	b6 01       	movw	r22, r12
 f28:	80 e3       	ldi	r24, 0x30	; 48
 f2a:	90 e0       	ldi	r25, 0x00	; 0
 f2c:	7a d0       	rcall	.+244    	; 0x1022 <fputc>
 f2e:	ba 94       	dec	r11
 f30:	f8 cf       	rjmp	.-16     	; 0xf22 <vfprintf+0x3b6>
 f32:	4a 94       	dec	r4
 f34:	e1 e0       	ldi	r30, 0x01	; 1
 f36:	f0 e0       	ldi	r31, 0x00	; 0
 f38:	ec 0f       	add	r30, r28
 f3a:	fd 1f       	adc	r31, r29
 f3c:	e4 0d       	add	r30, r4
 f3e:	f1 1d       	adc	r31, r1
 f40:	80 81       	ld	r24, Z
 f42:	b6 01       	movw	r22, r12
 f44:	90 e0       	ldi	r25, 0x00	; 0
 f46:	6d d0       	rcall	.+218    	; 0x1022 <fputc>
 f48:	41 10       	cpse	r4, r1
 f4a:	f3 cf       	rjmp	.-26     	; 0xf32 <vfprintf+0x3c6>
 f4c:	00 23       	and	r16, r16
 f4e:	09 f4       	brne	.+2      	; 0xf52 <vfprintf+0x3e6>
 f50:	3c ce       	rjmp	.-904    	; 0xbca <vfprintf+0x5e>
 f52:	b6 01       	movw	r22, r12
 f54:	80 e2       	ldi	r24, 0x20	; 32
 f56:	90 e0       	ldi	r25, 0x00	; 0
 f58:	64 d0       	rcall	.+200    	; 0x1022 <fputc>
 f5a:	01 50       	subi	r16, 0x01	; 1
 f5c:	f7 cf       	rjmp	.-18     	; 0xf4c <vfprintf+0x3e0>
 f5e:	f6 01       	movw	r30, r12
 f60:	87 81       	ldd	r24, Z+7	; 0x07
 f62:	90 85       	ldd	r25, Z+8	; 0x08
 f64:	02 c0       	rjmp	.+4      	; 0xf6a <vfprintf+0x3fe>
 f66:	8f ef       	ldi	r24, 0xFF	; 255
 f68:	9f ef       	ldi	r25, 0xFF	; 255
 f6a:	62 96       	adiw	r28, 0x12	; 18
 f6c:	0f b6       	in	r0, 0x3f	; 63
 f6e:	f8 94       	cli
 f70:	de bf       	out	0x3e, r29	; 62
 f72:	0f be       	out	0x3f, r0	; 63
 f74:	cd bf       	out	0x3d, r28	; 61
 f76:	df 91       	pop	r29
 f78:	cf 91       	pop	r28
 f7a:	1f 91       	pop	r17
 f7c:	0f 91       	pop	r16
 f7e:	ff 90       	pop	r15
 f80:	ef 90       	pop	r14
 f82:	df 90       	pop	r13
 f84:	cf 90       	pop	r12
 f86:	bf 90       	pop	r11
 f88:	af 90       	pop	r10
 f8a:	9f 90       	pop	r9
 f8c:	8f 90       	pop	r8
 f8e:	7f 90       	pop	r7
 f90:	6f 90       	pop	r6
 f92:	4f 90       	pop	r4
 f94:	3f 90       	pop	r3
 f96:	2f 90       	pop	r2
 f98:	08 95       	ret

Disassembly of section .text.avrlibc:

0000101c <__ctype_isfalse>:
    101c:	99 27       	eor	r25, r25
    101e:	88 27       	eor	r24, r24

00001020 <__ctype_istrue>:
    1020:	08 95       	ret

Disassembly of section .text.avrlibc:

00001156 <strnlen>:
    1156:	cf 92       	push	r12
    1158:	df 92       	push	r13
    115a:	ef 92       	push	r14
    115c:	6b 01       	movw	r12, r22
    115e:	e8 2e       	mov	r14, r24
    1160:	a8 2f       	mov	r26, r24
    1162:	cb 01       	movw	r24, r22
    1164:	41 15       	cp	r20, r1
    1166:	51 05       	cpc	r21, r1
    1168:	31 f4       	brne	.+12     	; 0x1176 <strnlen+0x20>
    116a:	8c 19       	sub	r24, r12
    116c:	9d 09       	sbc	r25, r13
    116e:	ef 90       	pop	r14
    1170:	df 90       	pop	r13
    1172:	cf 90       	pop	r12
    1174:	08 95       	ret
    1176:	fc 01       	movw	r30, r24
    1178:	24 91       	lpm	r18, Z
    117a:	a7 fd       	sbrc	r26, 7
    117c:	20 81       	ld	r18, Z
    117e:	22 23       	and	r18, r18
    1180:	a1 f3       	breq	.-24     	; 0x116a <strnlen+0x14>
    1182:	01 96       	adiw	r24, 0x01	; 1
    1184:	a1 1d       	adc	r26, r1
    1186:	41 50       	subi	r20, 0x01	; 1
    1188:	51 09       	sbc	r21, r1
    118a:	ec cf       	rjmp	.-40     	; 0x1164 <strnlen+0xe>

Disassembly of section .text.avrlibc:

00001022 <fputc>:
    1022:	0f 93       	push	r16
    1024:	1f 93       	push	r17
    1026:	cf 93       	push	r28
    1028:	df 93       	push	r29
    102a:	fb 01       	movw	r30, r22
    102c:	24 81       	ldd	r18, Z+4	; 0x04
    102e:	21 fd       	sbrc	r18, 1
    1030:	03 c0       	rjmp	.+6      	; 0x1038 <fputc+0x16>
    1032:	8f ef       	ldi	r24, 0xFF	; 255
    1034:	9f ef       	ldi	r25, 0xFF	; 255
    1036:	2c c0       	rjmp	.+88     	; 0x1090 <fputc+0x6e>
    1038:	22 ff       	sbrs	r18, 2
    103a:	16 c0       	rjmp	.+44     	; 0x1068 <fputc+0x46>
    103c:	47 81       	ldd	r20, Z+7	; 0x07
    103e:	50 85       	ldd	r21, Z+8	; 0x08
    1040:	25 81       	ldd	r18, Z+5	; 0x05
    1042:	36 81       	ldd	r19, Z+6	; 0x06
    1044:	42 17       	cp	r20, r18
    1046:	53 07       	cpc	r21, r19
    1048:	44 f4       	brge	.+16     	; 0x105a <fputc+0x38>
    104a:	a0 81       	ld	r26, Z
    104c:	b1 81       	ldd	r27, Z+1	; 0x01
    104e:	9d 01       	movw	r18, r26
    1050:	2f 5f       	subi	r18, 0xFF	; 255
    1052:	3f 4f       	sbci	r19, 0xFF	; 255
    1054:	31 83       	std	Z+1, r19	; 0x01
    1056:	20 83       	st	Z, r18
    1058:	8c 93       	st	X, r24
    105a:	27 81       	ldd	r18, Z+7	; 0x07
    105c:	30 85       	ldd	r19, Z+8	; 0x08
    105e:	2f 5f       	subi	r18, 0xFF	; 255
    1060:	3f 4f       	sbci	r19, 0xFF	; 255
    1062:	30 87       	std	Z+8, r19	; 0x08
    1064:	27 83       	std	Z+7, r18	; 0x07
    1066:	14 c0       	rjmp	.+40     	; 0x1090 <fputc+0x6e>
    1068:	8b 01       	movw	r16, r22
    106a:	ec 01       	movw	r28, r24
    106c:	fb 01       	movw	r30, r22
    106e:	01 84       	ldd	r0, Z+9	; 0x09
    1070:	f2 85       	ldd	r31, Z+10	; 0x0a
    1072:	e0 2d       	mov	r30, r0
    1074:	09 95       	icall
    1076:	89 2b       	or	r24, r25
    1078:	e1 f6       	brne	.-72     	; 0x1032 <fputc+0x10>
    107a:	d8 01       	movw	r26, r16
    107c:	17 96       	adiw	r26, 0x07	; 7
    107e:	8d 91       	ld	r24, X+
    1080:	9c 91       	ld	r25, X
    1082:	18 97       	sbiw	r26, 0x08	; 8
    1084:	01 96       	adiw	r24, 0x01	; 1
    1086:	18 96       	adiw	r26, 0x08	; 8
    1088:	9c 93       	st	X, r25
    108a:	8e 93       	st	-X, r24
    108c:	17 97       	sbiw	r26, 0x07	; 7
    108e:	ce 01       	movw	r24, r28
    1090:	df 91       	pop	r29
    1092:	cf 91       	pop	r28
    1094:	1f 91       	pop	r17
    1096:	0f 91       	pop	r16
    1098:	08 95       	ret

Disassembly of section .text.avrlibc:

0000109a <__ultoa_invert>:
    109a:	fa 01       	movw	r30, r20
    109c:	aa 27       	eor	r26, r26
    109e:	28 30       	cpi	r18, 0x08	; 8
    10a0:	51 f1       	breq	.+84     	; 0x10f6 <__ultoa_invert+0x5c>
    10a2:	20 31       	cpi	r18, 0x10	; 16
    10a4:	81 f1       	breq	.+96     	; 0x1106 <__ultoa_invert+0x6c>
    10a6:	e8 94       	clt
    10a8:	6f 93       	push	r22
    10aa:	6e 7f       	andi	r22, 0xFE	; 254
    10ac:	6e 5f       	subi	r22, 0xFE	; 254
    10ae:	7f 4f       	sbci	r23, 0xFF	; 255
    10b0:	8f 4f       	sbci	r24, 0xFF	; 255
    10b2:	9f 4f       	sbci	r25, 0xFF	; 255
    10b4:	af 4f       	sbci	r26, 0xFF	; 255
    10b6:	b1 e0       	ldi	r27, 0x01	; 1
    10b8:	3e d0       	rcall	.+124    	; 0x1136 <__ultoa_invert+0x9c>
    10ba:	b4 e0       	ldi	r27, 0x04	; 4
    10bc:	3c d0       	rcall	.+120    	; 0x1136 <__ultoa_invert+0x9c>
    10be:	67 0f       	add	r22, r23
    10c0:	78 1f       	adc	r23, r24
    10c2:	89 1f       	adc	r24, r25
    10c4:	9a 1f       	adc	r25, r26
    10c6:	a1 1d       	adc	r26, r1
    10c8:	68 0f       	add	r22, r24
    10ca:	79 1f       	adc	r23, r25
    10cc:	8a 1f       	adc	r24, r26
    10ce:	91 1d       	adc	r25, r1
    10d0:	a1 1d       	adc	r26, r1
    10d2:	6a 0f       	add	r22, r26
    10d4:	71 1d       	adc	r23, r1
    10d6:	81 1d       	adc	r24, r1
    10d8:	91 1d       	adc	r25, r1
    10da:	a1 1d       	adc	r26, r1
    10dc:	20 d0       	rcall	.+64     	; 0x111e <__ultoa_invert+0x84>
    10de:	09 f4       	brne	.+2      	; 0x10e2 <__ultoa_invert+0x48>
    10e0:	68 94       	set
    10e2:	3f 91       	pop	r19
    10e4:	2a e0       	ldi	r18, 0x0A	; 10
    10e6:	26 9f       	mul	r18, r22
    10e8:	11 24       	eor	r1, r1
    10ea:	30 19       	sub	r19, r0
    10ec:	30 5d       	subi	r19, 0xD0	; 208
    10ee:	31 93       	st	Z+, r19
    10f0:	de f6       	brtc	.-74     	; 0x10a8 <__ultoa_invert+0xe>
    10f2:	cf 01       	movw	r24, r30
    10f4:	08 95       	ret
    10f6:	46 2f       	mov	r20, r22
    10f8:	47 70       	andi	r20, 0x07	; 7
    10fa:	40 5d       	subi	r20, 0xD0	; 208
    10fc:	41 93       	st	Z+, r20
    10fe:	b3 e0       	ldi	r27, 0x03	; 3
    1100:	0f d0       	rcall	.+30     	; 0x1120 <__ultoa_invert+0x86>
    1102:	c9 f7       	brne	.-14     	; 0x10f6 <__ultoa_invert+0x5c>
    1104:	f6 cf       	rjmp	.-20     	; 0x10f2 <__ultoa_invert+0x58>
    1106:	46 2f       	mov	r20, r22
    1108:	4f 70       	andi	r20, 0x0F	; 15
    110a:	40 5d       	subi	r20, 0xD0	; 208
    110c:	4a 33       	cpi	r20, 0x3A	; 58
    110e:	18 f0       	brcs	.+6      	; 0x1116 <__ultoa_invert+0x7c>
    1110:	49 5d       	subi	r20, 0xD9	; 217
    1112:	31 fd       	sbrc	r19, 1
    1114:	40 52       	subi	r20, 0x20	; 32
    1116:	41 93       	st	Z+, r20
    1118:	02 d0       	rcall	.+4      	; 0x111e <__ultoa_invert+0x84>
    111a:	a9 f7       	brne	.-22     	; 0x1106 <__ultoa_invert+0x6c>
    111c:	ea cf       	rjmp	.-44     	; 0x10f2 <__ultoa_invert+0x58>
    111e:	b4 e0       	ldi	r27, 0x04	; 4
    1120:	a6 95       	lsr	r26
    1122:	97 95       	ror	r25
    1124:	87 95       	ror	r24
    1126:	77 95       	ror	r23
    1128:	67 95       	ror	r22
    112a:	ba 95       	dec	r27
    112c:	c9 f7       	brne	.-14     	; 0x1120 <__ultoa_invert+0x86>
    112e:	00 97       	sbiw	r24, 0x00	; 0
    1130:	61 05       	cpc	r22, r1
    1132:	71 05       	cpc	r23, r1
    1134:	08 95       	ret
    1136:	9b 01       	movw	r18, r22
    1138:	ac 01       	movw	r20, r24
    113a:	0a 2e       	mov	r0, r26
    113c:	06 94       	lsr	r0
    113e:	57 95       	ror	r21
    1140:	47 95       	ror	r20
    1142:	37 95       	ror	r19
    1144:	27 95       	ror	r18
    1146:	ba 95       	dec	r27
    1148:	c9 f7       	brne	.-14     	; 0x113c <__ultoa_invert+0xa2>
    114a:	62 0f       	add	r22, r18
    114c:	73 1f       	adc	r23, r19
    114e:	84 1f       	adc	r24, r20
    1150:	95 1f       	adc	r25, r21
    1152:	a0 1d       	adc	r26, r0
    1154:	08 95       	ret

Disassembly of section .text.libgcc.mul:

00000b3e <__mulsi3>:
 b3e:	db 01       	movw	r26, r22
 b40:	8f 93       	push	r24
 b42:	9f 93       	push	r25
 b44:	61 d2       	rcall	.+1218   	; 0x1008 <__muluhisi3>
 b46:	bf 91       	pop	r27
 b48:	af 91       	pop	r26
 b4a:	a2 9f       	mul	r26, r18
 b4c:	80 0d       	add	r24, r0
 b4e:	91 1d       	adc	r25, r1
 b50:	a3 9f       	mul	r26, r19
 b52:	90 0d       	add	r25, r0
 b54:	b2 9f       	mul	r27, r18
 b56:	90 0d       	add	r25, r0
 b58:	11 24       	eor	r1, r1
 b5a:	08 95       	ret

Disassembly of section .text.libgcc.mul:

00001008 <__muluhisi3>:
    1008:	c1 d0       	rcall	.+386    	; 0x118c <__umulhisi3>
    100a:	a5 9f       	mul	r26, r21
    100c:	90 0d       	add	r25, r0
    100e:	b4 9f       	mul	r27, r20
    1010:	90 0d       	add	r25, r0
    1012:	a4 9f       	mul	r26, r20
    1014:	80 0d       	add	r24, r0
    1016:	91 1d       	adc	r25, r1
    1018:	11 24       	eor	r1, r1
    101a:	08 95       	ret

Disassembly of section .text.libgcc.prologue:

00000fd0 <__prologue_saves__>:
     fd0:	2f 92       	push	r2
     fd2:	3f 92       	push	r3
     fd4:	4f 92       	push	r4
     fd6:	5f 92       	push	r5
     fd8:	6f 92       	push	r6
     fda:	7f 92       	push	r7
     fdc:	8f 92       	push	r8
     fde:	9f 92       	push	r9
     fe0:	af 92       	push	r10
     fe2:	bf 92       	push	r11
     fe4:	cf 92       	push	r12
     fe6:	df 92       	push	r13
     fe8:	ef 92       	push	r14
     fea:	ff 92       	push	r15
     fec:	0f 93       	push	r16
     fee:	1f 93       	push	r17
     ff0:	cf 93       	push	r28
     ff2:	df 93       	push	r29
     ff4:	cd b7       	in	r28, 0x3d	; 61
     ff6:	de b7       	in	r29, 0x3e	; 62
     ff8:	ca 1b       	sub	r28, r26
     ffa:	db 0b       	sbc	r29, r27
     ffc:	0f b6       	in	r0, 0x3f	; 63
     ffe:	f8 94       	cli
    1000:	de bf       	out	0x3e, r29	; 62
    1002:	0f be       	out	0x3f, r0	; 63
    1004:	cd bf       	out	0x3d, r28	; 61
    1006:	09 94       	ijmp

Disassembly of section .text.libgcc.prologue:

00000f9a <__epilogue_restores__>:
 f9a:	2a 88       	ldd	r2, Y+18	; 0x12
 f9c:	39 88       	ldd	r3, Y+17	; 0x11
 f9e:	48 88       	ldd	r4, Y+16	; 0x10
 fa0:	5f 84       	ldd	r5, Y+15	; 0x0f
 fa2:	6e 84       	ldd	r6, Y+14	; 0x0e
 fa4:	7d 84       	ldd	r7, Y+13	; 0x0d
 fa6:	8c 84       	ldd	r8, Y+12	; 0x0c
 fa8:	9b 84       	ldd	r9, Y+11	; 0x0b
 faa:	aa 84       	ldd	r10, Y+10	; 0x0a
 fac:	b9 84       	ldd	r11, Y+9	; 0x09
 fae:	c8 84       	ldd	r12, Y+8	; 0x08
 fb0:	df 80       	ldd	r13, Y+7	; 0x07
 fb2:	ee 80       	ldd	r14, Y+6	; 0x06
 fb4:	fd 80       	ldd	r15, Y+5	; 0x05
 fb6:	0c 81       	ldd	r16, Y+4	; 0x04
 fb8:	1b 81       	ldd	r17, Y+3	; 0x03
 fba:	aa 81       	ldd	r26, Y+2	; 0x02
 fbc:	b9 81       	ldd	r27, Y+1	; 0x01
 fbe:	ce 0f       	add	r28, r30
 fc0:	d1 1d       	adc	r29, r1
 fc2:	0f b6       	in	r0, 0x3f	; 63
 fc4:	f8 94       	cli
 fc6:	de bf       	out	0x3e, r29	; 62
 fc8:	0f be       	out	0x3f, r0	; 63
 fca:	cd bf       	out	0x3d, r28	; 61
 fcc:	ed 01       	movw	r28, r26
 fce:	08 95       	ret

Disassembly of section .text.libgcc.mul:

0000118c <__umulhisi3>:
    118c:	a2 9f       	mul	r26, r18
    118e:	b0 01       	movw	r22, r0
    1190:	b3 9f       	mul	r27, r19
    1192:	c0 01       	movw	r24, r0
    1194:	a3 9f       	mul	r26, r19
    1196:	70 0d       	add	r23, r0
    1198:	81 1d       	adc	r24, r1
    119a:	11 24       	eor	r1, r1
    119c:	91 1d       	adc	r25, r1
    119e:	b2 9f       	mul	r27, r18
    11a0:	70 0d       	add	r23, r0
    11a2:	81 1d       	adc	r24, r1
    11a4:	11 24       	eor	r1, r1
    11a6:	91 1d       	adc	r25, r1
    11a8:	08 95       	ret
