
vlp-firmware_atmel.elf:     file format elf32-avr

Sections:
Idx Name          Size      VMA       LMA       File off  Algn
  0 .data         00000000  00800100  00800100  000014e3  2**0
                  ALLOC, LOAD, DATA
  1 .text         000000ca  00000000  00000000  000000b4  2**1
                  CONTENTS, ALLOC, LOAD, READONLY, CODE
  2 .bss          0000000c  00800100  00800100  000014e3  2**0
                  ALLOC
  3 .comment      0000005b  00000000  00000000  000014e3  2**0
                  CONTENTS, READONLY
  4 .debug_info   000005f4  00000000  00000000  0000153e  2**0
                  CONTENTS, READONLY, DEBUGGING
  5 .debug_abbrev 000005a2  00000000  00000000  00001b32  2**0
                  CONTENTS, READONLY, DEBUGGING
  6 .debug_line   00000137  00000000  00000000  000020d4  2**0
                  CONTENTS, READONLY, DEBUGGING
  7 .debug_str    00000208  00000000  00000000  0000220b  2**0
                  CONTENTS, READONLY, DEBUGGING
  8 .text         00000004  000012b4  000012b4  00001368  2**1
                  CONTENTS, ALLOC, LOAD, READONLY, CODE
  9 .note.gnu.avr.deviceinfo 00000040  00000000  00000000  00002414  2**2
                  CONTENTS, READONLY, DEBUGGING
 10 .text.updateBitstream 000000ce  000005c0  000005c0  00000674  2**1
                  CONTENTS, ALLOC, LOAD, READONLY, CODE
 11 .text.updateLED 00000042  0000057e  0000057e  00000632  2**1
                  CONTENTS, ALLOC, LOAD, READONLY, CODE
 12 .progmemx.data 00000033  000012b8  000012b8  0000136c  2**0
                  CONTENTS, ALLOC, LOAD, READONLY, PROGMEMX
 13 .text.checkRF 00000140  00000232  00000232  000002e6  2**1
                  CONTENTS, ALLOC, LOAD, READONLY, CODE
 14 .text.getBit  0000004b  000012eb  000012eb  0000139f  2**1
                  CONTENTS, ALLOC, LOAD, READONLY, CODE
 15 .bss.pos.2253 00000001  0080011c  0080011c  000014e3  2**0
                  ALLOC
 16 .bss.bit_count 00000001  0080011d  0080011d  000014e3  2**0
                  ALLOC
 17 .bss.byte_count 00000001  0080011e  0080011e  000014e3  2**0
                  ALLOC
 18 .bss.bitstream 00000028  0080011f  0080011f  000014e3  2**0
                  ALLOC
 19 .bss.bitstream_byte_array 00000007  00800147  00800147  000014e3  2**0
                  ALLOC
 20 .data.ACK_array 00000002  0080010c  0000141f  000014d3  2**0
                  CONTENTS, ALLOC, LOAD, DATA
 21 .bss.RX_command_array 00000007  0080014e  0080014e  000014e3  2**0
                  ALLOC
 22 .text.digitalPotWrite 000000a2  000003f6  000003f6  000004aa  2**1
                  CONTENTS, ALLOC, LOAD, READONLY, CODE
 23 .text.initLEDObject 0000001c  000001c2  000001c2  00000276  2**1
                  CONTENTS, ALLOC, LOAD, READONLY, CODE
 24 .text.setLedState 00000006  00000cd6  00000cd6  00000d8a  2**1
                  CONTENTS, ALLOC, LOAD, READONLY, CODE
 25 .text.setLedMode 00000006  00000c94  00000c94  00000d48  2**1
                  CONTENTS, ALLOC, LOAD, READONLY, CODE
 26 .text.setLedIntensity 00000006  00000c9a  00000c9a  00000d4e  2**1
                  CONTENTS, ALLOC, LOAD, READONLY, CODE
 27 .text.getLedFrequency 00000008  000012ac  000012ac  00001360  2**1
                  CONTENTS, ALLOC, LOAD, READONLY, CODE
 28 .text.setLedFrequency 00000008  00000ca0  00000ca0  00000d54  2**1
                  CONTENTS, ALLOC, LOAD, READONLY, CODE
 29 .text.getLedDutyCycle 00000006  000012a6  000012a6  0000135a  2**1
                  CONTENTS, ALLOC, LOAD, READONLY, CODE
 30 .text.setLedDutyCycle 00000006  00000ca8  00000ca8  00000d5c  2**1
                  CONTENTS, ALLOC, LOAD, READONLY, CODE
 31 .text.startupLED 00000054  000001de  000001de  00000292  2**1
                  CONTENTS, ALLOC, LOAD, READONLY, CODE
 32 .text.updateLEDHW 00000028  00000cae  00000cae  00000d62  2**1
                  CONTENTS, ALLOC, LOAD, READONLY, CODE
 33 .text.__vector_11 00000072  00001336  00001336  000013ea  2**1
                  CONTENTS, ALLOC, LOAD, READONLY, CODE
 34 .text.__vector_12 0000001c  000013a8  000013a8  0000145c  2**1
                  CONTENTS, ALLOC, LOAD, READONLY, CODE
 35 .progmemx.data 00000017  000013c4  000013c4  00001478  2**0
                  CONTENTS, ALLOC, LOAD, READONLY, PROGMEMX
 36 .text.startup.main 00000034  000000ca  000000ca  0000017e  2**1
                  CONTENTS, ALLOC, LOAD, READONLY, CODE
 37 .text.nrf24_ce_digitalWrite.part.0 00000004  000006c2  000006c2  00000776  2**1
                  CONTENTS, ALLOC, LOAD, READONLY, CODE
 38 .text.nrf24_csn_digitalWrite.part.1 00000004  00000396  00000396  0000044a  2**1
                  CONTENTS, ALLOC, LOAD, READONLY, CODE
 39 .text.nrf24_getStatus 0000001a  00000d3e  00000d3e  00000df2  2**1
                  CONTENTS, ALLOC, LOAD, READONLY, CODE
 40 .text.nrf24_configRegister 00000020  000003b4  000003b4  00000468  2**1
                  CONTENTS, ALLOC, LOAD, READONLY, CODE
 41 .text.nrf24_getData 00000044  000004d8  000004d8  0000058c  2**1
                  CONTENTS, ALLOC, LOAD, READONLY, CODE
 42 .text.nrf24_powerUpRx 00000022  000003d4  000003d4  00000488  2**1
                  CONTENTS, ALLOC, LOAD, READONLY, CODE
 43 .progmemx.data 00000044  000013db  000013db  0000148f  2**0
                  CONTENTS, ALLOC, LOAD, READONLY, PROGMEMX
 44 .text.nrf24_config 00000072  00000150  00000150  00000204  2**1
                  CONTENTS, ALLOC, LOAD, READONLY, CODE
 45 .text.nrf24_powerUpTx 0000000c  00000c88  00000c88  00000d3c  2**1
                  CONTENTS, ALLOC, LOAD, READONLY, CODE
 46 .text.nrf24_send 00000062  0000051c  0000051c  000005d0  2**1
                  CONTENTS, ALLOC, LOAD, READONLY, CODE
 47 .text.nrf24_readRegister 0000003c  00000d02  00000d02  00000db6  2**1
                  CONTENTS, ALLOC, LOAD, READONLY, CODE
 48 .text.nrf24_dataReady 00000034  0000068e  0000068e  00000742  2**1
                  CONTENTS, ALLOC, LOAD, READONLY, CODE
 49 .text.nrf24_writeRegister 0000003c  000006c6  000006c6  0000077a  2**1
                  CONTENTS, ALLOC, LOAD, READONLY, CODE
 50 .text.nrf24_rx_address 0000000c  0000038a  0000038a  0000043e  2**1
                  CONTENTS, ALLOC, LOAD, READONLY, CODE
 51 .text.nrf24_tx_address 0000001a  0000039a  0000039a  0000044e  2**1
                  CONTENTS, ALLOC, LOAD, READONLY, CODE
 52 .text.nrf24_init 00000022  0000012e  0000012e  000001e2  2**1
                  CONTENTS, ALLOC, LOAD, READONLY, CODE
 53 .data.nrf24_addr 0000000a  0080010e  00001421  000014d5  2**0
                  CONTENTS, ALLOC, LOAD, DATA
 54 .text.setupTimer 000000fc  00001110  00001110  000011c4  2**1
                  CONTENTS, ALLOC, LOAD, READONLY, CODE
 55 .data.compB   00000004  00800118  0000142b  000014df  2**0
                  CONTENTS, ALLOC, LOAD, DATA
 56 .text.uart_init 00000018  00000372  00000372  00000426  2**1
                  CONTENTS, ALLOC, LOAD, READONLY, CODE
 57 .text.uart_puts 00000030  000000fe  000000fe  000001b2  2**1
                  CONTENTS, ALLOC, LOAD, READONLY, CODE
 58 .text.avrlibc.fplib 00000008  0000070a  0000070a  000007be  2**1
                  CONTENTS, ALLOC, LOAD, READONLY, CODE
 59 .text.avrlibc.fplib 00000004  00000706  00000706  000007ba  2**1
                  CONTENTS, ALLOC, LOAD, READONLY, CODE
 60 .text.avrlibc.fplib 000000ce  00000e3e  00000e3e  00000ef2  2**1
                  CONTENTS, ALLOC, LOAD, READONLY, CODE
 61 .text.avrlibc.fplib 00000058  0000071a  0000071a  000007ce  2**1
                  CONTENTS, ALLOC, LOAD, READONLY, CODE
 62 .text.avrlibc.fplib 0000007a  00000772  00000772  00000826  2**1
                  CONTENTS, ALLOC, LOAD, READONLY, CODE
 63 .text.avrlibc.fplib 00000048  00000f0c  00000f0c  00000fc0  2**1
                  CONTENTS, ALLOC, LOAD, READONLY, CODE
 64 .text.avrlibc.fplib 0000000c  00001234  00001234  000012e8  2**1
                  CONTENTS, ALLOC, LOAD, READONLY, CODE
 65 .text.avrlibc.fplib 00000006  00001240  00001240  000012f4  2**1
                  CONTENTS, ALLOC, LOAD, READONLY, CODE
 66 .text.avrlibc.fplib 0000000e  00001254  00001254  00001308  2**1
                  CONTENTS, ALLOC, LOAD, READONLY, CODE
 67 .text.avrlibc.fplib 0000000e  00001246  00001246  000012fa  2**1
                  CONTENTS, ALLOC, LOAD, READONLY, CODE
 68 .text.avrlibc.fplib 00000022  00000d58  00000d58  00000e0c  2**1
                  CONTENTS, ALLOC, LOAD, READONLY, CODE
 69 .text.avrlibc.fplib 00000044  00000f62  00000f62  00001016  2**1
                  CONTENTS, ALLOC, LOAD, READONLY, CODE
 70 .text.avrlibc.fplib 0000000e  00000f54  00000f54  00001008  2**1
                  CONTENTS, ALLOC, LOAD, READONLY, CODE
 71 .text.avrlibc.fplib 00000008  00000712  00000712  000007c6  2**1
                  CONTENTS, ALLOC, LOAD, READONLY, CODE
 72 .text.avrlibc.fplib 00000004  00000702  00000702  000007b6  2**1
                  CONTENTS, ALLOC, LOAD, READONLY, CODE
 73 .text.avrlibc.fplib 000000c4  00000d7a  00000d7a  00000e2e  2**1
                  CONTENTS, ALLOC, LOAD, READONLY, CODE
 74 .text.libgcc.div 00000026  00000cdc  00000cdc  00000d90  2**1
                  CONTENTS, ALLOC, LOAD, READONLY, CODE
 75 .text.libgcc.div 00000044  00001262  00001262  00001316  2**1
                  CONTENTS, ALLOC, LOAD, READONLY, CODE
 76 .text.libgcc.div 00000028  0000120c  0000120c  000012c0  2**1
                  CONTENTS, ALLOC, LOAD, READONLY, CODE
 77 .text.avrlibc 00000040  00000498  00000498  0000054c  2**1
                  CONTENTS, ALLOC, LOAD, READONLY, CODE
 78 .text.avrlibc 0000042e  000007ec  000007ec  000008a0  2**1
                  CONTENTS, ALLOC, LOAD, READONLY, CODE
 79 .text.avrlibc 00000036  000010da  000010da  0000118e  2**1
                  CONTENTS, ALLOC, LOAD, READONLY, CODE
 80 .text.avrlibc 00000078  00000fa6  00000fa6  0000105a  2**1
                  CONTENTS, ALLOC, LOAD, READONLY, CODE
 81 .text.avrlibc 000000bc  0000101e  0000101e  000010d2  2**1
                  CONTENTS, ALLOC, LOAD, READONLY, CODE
 82 .text.libgcc.prologue 00000038  00000c50  00000c50  00000d04  2**1
                  CONTENTS, ALLOC, LOAD, READONLY, CODE
 83 .text.libgcc.prologue 00000036  00000c1a  00000c1a  00000cce  2**1
                  CONTENTS, ALLOC, LOAD, READONLY, CODE

Disassembly of section .text:

00000000 <__vectors>:
   0:	3c c0       	rjmp	.+120    	; 0x7a <__ctors_end>
   2:	00 00       	nop
   4:	0c 94 5a 09 	jmp	0x12b4	; 0x12b4 <__bad_interrupt>
   8:	0c 94 5a 09 	jmp	0x12b4	; 0x12b4 <__bad_interrupt>
   c:	0c 94 5a 09 	jmp	0x12b4	; 0x12b4 <__bad_interrupt>
  10:	0c 94 5a 09 	jmp	0x12b4	; 0x12b4 <__bad_interrupt>
  14:	0c 94 5a 09 	jmp	0x12b4	; 0x12b4 <__bad_interrupt>
  18:	0c 94 5a 09 	jmp	0x12b4	; 0x12b4 <__bad_interrupt>
  1c:	0c 94 5a 09 	jmp	0x12b4	; 0x12b4 <__bad_interrupt>
  20:	0c 94 5a 09 	jmp	0x12b4	; 0x12b4 <__bad_interrupt>
  24:	0c 94 5a 09 	jmp	0x12b4	; 0x12b4 <__bad_interrupt>
  28:	0c 94 5a 09 	jmp	0x12b4	; 0x12b4 <__bad_interrupt>
  2c:	0c 94 9b 09 	jmp	0x1336	; 0x1336 <__vector_11>
  30:	0c 94 d4 09 	jmp	0x13a8	; 0x13a8 <__vector_12>
  34:	0c 94 5a 09 	jmp	0x12b4	; 0x12b4 <__bad_interrupt>
  38:	0c 94 5a 09 	jmp	0x12b4	; 0x12b4 <__bad_interrupt>
  3c:	0c 94 5a 09 	jmp	0x12b4	; 0x12b4 <__bad_interrupt>
  40:	0c 94 5a 09 	jmp	0x12b4	; 0x12b4 <__bad_interrupt>
  44:	0c 94 5a 09 	jmp	0x12b4	; 0x12b4 <__bad_interrupt>
  48:	0c 94 5a 09 	jmp	0x12b4	; 0x12b4 <__bad_interrupt>
  4c:	0c 94 5a 09 	jmp	0x12b4	; 0x12b4 <__bad_interrupt>
  50:	0c 94 5a 09 	jmp	0x12b4	; 0x12b4 <__bad_interrupt>
  54:	0c 94 5a 09 	jmp	0x12b4	; 0x12b4 <__bad_interrupt>
  58:	0c 94 5a 09 	jmp	0x12b4	; 0x12b4 <__bad_interrupt>
  5c:	0c 94 5a 09 	jmp	0x12b4	; 0x12b4 <__bad_interrupt>
  60:	0c 94 5a 09 	jmp	0x12b4	; 0x12b4 <__bad_interrupt>
  64:	0c 94 5a 09 	jmp	0x12b4	; 0x12b4 <__bad_interrupt>

00000068 <.dinit>:
  68:	01 00       	.word	0x0001	; ????
  6a:	01 0c       	add	r0, r1
  6c:	80 01       	movw	r16, r0
  6e:	0c 01       	movw	r0, r24
  70:	1c 00       	.word	0x001c	; ????
  72:	14 1f       	adc	r17, r20
  74:	01 1c       	adc	r0, r1
  76:	01 55       	subi	r16, 0x51	; 81
  78:	80 00       	.word	0x0080	; ????

0000007a <__ctors_end>:
  7a:	11 24       	eor	r1, r1
  7c:	1f be       	out	0x3f, r1	; 63
  7e:	cf ef       	ldi	r28, 0xFF	; 255
  80:	d8 e0       	ldi	r29, 0x08	; 8
  82:	de bf       	out	0x3e, r29	; 62
  84:	cd bf       	out	0x3d, r28	; 61

00000086 <__do_copy_data>:
  86:	e8 e6       	ldi	r30, 0x68	; 104
  88:	f0 e0       	ldi	r31, 0x00	; 0
  8a:	40 e0       	ldi	r20, 0x00	; 0
  8c:	17 c0       	rjmp	.+46     	; 0xbc <__do_clear_bss+0x8>
  8e:	b5 91       	lpm	r27, Z+
  90:	a5 91       	lpm	r26, Z+
  92:	35 91       	lpm	r19, Z+
  94:	25 91       	lpm	r18, Z+
  96:	05 91       	lpm	r16, Z+
  98:	07 fd       	sbrc	r16, 7
  9a:	0c c0       	rjmp	.+24     	; 0xb4 <__do_clear_bss>
  9c:	95 91       	lpm	r25, Z+
  9e:	85 91       	lpm	r24, Z+
  a0:	ef 01       	movw	r28, r30
  a2:	f9 2f       	mov	r31, r25
  a4:	e8 2f       	mov	r30, r24
  a6:	05 90       	lpm	r0, Z+
  a8:	0d 92       	st	X+, r0
  aa:	a2 17       	cp	r26, r18
  ac:	b3 07       	cpc	r27, r19
  ae:	d9 f7       	brne	.-10     	; 0xa6 <__do_copy_data+0x20>
  b0:	fe 01       	movw	r30, r28
  b2:	04 c0       	rjmp	.+8      	; 0xbc <__do_clear_bss+0x8>

000000b4 <__do_clear_bss>:
  b4:	1d 92       	st	X+, r1
  b6:	a2 17       	cp	r26, r18
  b8:	b3 07       	cpc	r27, r19
  ba:	e1 f7       	brne	.-8      	; 0xb4 <__do_clear_bss>
  bc:	e9 37       	cpi	r30, 0x79	; 121
  be:	f4 07       	cpc	r31, r20
  c0:	31 f7       	brne	.-52     	; 0x8e <__do_copy_data+0x8>
  c2:	03 d0       	rcall	.+6      	; 0xca <_etext>
  c4:	00 c0       	rjmp	.+0      	; 0xc6 <_exit>

000000c6 <_exit>:
  c6:	f8 94       	cli

000000c8 <__stop_program>:
  c8:	ff cf       	rjmp	.-2      	; 0xc8 <__stop_program>

Disassembly of section .text:

000012b4 <__bad_interrupt>:
    12b4:	0c 94 00 00 	jmp	0	; 0x0 <__TEXT_REGION_ORIGIN__>

Disassembly of section .text.updateBitstream:

000005c0 <updateBitstream>:
 5c0:	cf 92       	push	r12
 5c2:	df 92       	push	r13
 5c4:	ef 92       	push	r14
 5c6:	ff 92       	push	r15
 5c8:	0f 93       	push	r16
 5ca:	1f 93       	push	r17
 5cc:	cf 93       	push	r28
 5ce:	df 93       	push	r29
 5d0:	00 91 50 01 	lds	r16, 0x0150	; 0x800150 <RX_command_array+0x2>
 5d4:	00 93 1d 01 	sts	0x011D, r16	; 0x80011d <bit_count>
 5d8:	20 2f       	mov	r18, r16
 5da:	26 95       	lsr	r18
 5dc:	26 95       	lsr	r18
 5de:	26 95       	lsr	r18
 5e0:	80 2f       	mov	r24, r16
 5e2:	87 70       	andi	r24, 0x07	; 7
 5e4:	09 f0       	breq	.+2      	; 0x5e8 <updateBitstream+0x28>
 5e6:	4f c0       	rjmp	.+158    	; 0x686 <updateBitstream+0xc6>
 5e8:	20 93 1e 01 	sts	0x011E, r18	; 0x80011e <byte_count>
 5ec:	22 23       	and	r18, r18
 5ee:	69 f0       	breq	.+26     	; 0x60a <updateBitstream+0x4a>
 5f0:	a1 e5       	ldi	r26, 0x51	; 81
 5f2:	b1 e0       	ldi	r27, 0x01	; 1
 5f4:	e7 e4       	ldi	r30, 0x47	; 71
 5f6:	f1 e0       	ldi	r31, 0x01	; 1
 5f8:	21 50       	subi	r18, 0x01	; 1
 5fa:	30 e0       	ldi	r19, 0x00	; 0
 5fc:	28 5b       	subi	r18, 0xB8	; 184
 5fe:	3e 4f       	sbci	r19, 0xFE	; 254
 600:	8d 91       	ld	r24, X+
 602:	81 93       	st	Z+, r24
 604:	e2 17       	cp	r30, r18
 606:	f3 07       	cpc	r31, r19
 608:	d9 f7       	brne	.-10     	; 0x600 <updateBitstream+0x40>
 60a:	00 23       	and	r16, r16
 60c:	99 f1       	breq	.+102    	; 0x674 <updateBitstream+0xb4>
 60e:	cf e1       	ldi	r28, 0x1F	; 31
 610:	d1 e0       	ldi	r29, 0x01	; 1
 612:	01 50       	subi	r16, 0x01	; 1
 614:	10 e0       	ldi	r17, 0x00	; 0
 616:	0f 5f       	subi	r16, 0xFF	; 255
 618:	1f 4f       	sbci	r17, 0xFF	; 255
 61a:	e0 e0       	ldi	r30, 0x00	; 0
 61c:	f0 e0       	ldi	r31, 0x00	; 0
 61e:	87 e0       	ldi	r24, 0x07	; 7
 620:	c8 2e       	mov	r12, r24
 622:	d1 2c       	mov	r13, r1
 624:	ee 24       	eor	r14, r14
 626:	e3 94       	inc	r14
 628:	f1 2c       	mov	r15, r1
 62a:	2e 2f       	mov	r18, r30
 62c:	26 95       	lsr	r18
 62e:	26 95       	lsr	r18
 630:	26 95       	lsr	r18
 632:	30 e0       	ldi	r19, 0x00	; 0
 634:	b9 01       	movw	r22, r18
 636:	69 5f       	subi	r22, 0xF9	; 249
 638:	7f 4f       	sbci	r23, 0xFF	; 255
 63a:	cf 01       	movw	r24, r30
 63c:	4f d3       	rcall	.+1694   	; 0xcdc <__divmodhi4>
 63e:	a6 01       	movw	r20, r12
 640:	48 1b       	sub	r20, r24
 642:	59 0b       	sbc	r21, r25
 644:	d9 01       	movw	r26, r18
 646:	a9 5b       	subi	r26, 0xB9	; 185
 648:	be 4f       	sbci	r27, 0xFE	; 254
 64a:	8c 91       	ld	r24, X
 64c:	90 e0       	ldi	r25, 0x00	; 0
 64e:	97 01       	movw	r18, r14
 650:	04 2e       	mov	r0, r20
 652:	02 c0       	rjmp	.+4      	; 0x658 <updateBitstream+0x98>
 654:	22 0f       	add	r18, r18
 656:	33 1f       	adc	r19, r19
 658:	0a 94       	dec	r0
 65a:	e2 f7       	brpl	.-8      	; 0x654 <updateBitstream+0x94>
 65c:	82 23       	and	r24, r18
 65e:	93 23       	and	r25, r19
 660:	02 c0       	rjmp	.+4      	; 0x666 <updateBitstream+0xa6>
 662:	95 95       	asr	r25
 664:	87 95       	ror	r24
 666:	4a 95       	dec	r20
 668:	e2 f7       	brpl	.-8      	; 0x662 <updateBitstream+0xa2>
 66a:	89 93       	st	Y+, r24
 66c:	31 96       	adiw	r30, 0x01	; 1
 66e:	e0 17       	cp	r30, r16
 670:	f1 07       	cpc	r31, r17
 672:	d9 f6       	brne	.-74     	; 0x62a <updateBitstream+0x6a>
 674:	df 91       	pop	r29
 676:	cf 91       	pop	r28
 678:	1f 91       	pop	r17
 67a:	0f 91       	pop	r16
 67c:	ff 90       	pop	r15
 67e:	ef 90       	pop	r14
 680:	df 90       	pop	r13
 682:	cf 90       	pop	r12
 684:	08 95       	ret
 686:	2f 5f       	subi	r18, 0xFF	; 255
 688:	20 93 1e 01 	sts	0x011E, r18	; 0x80011e <byte_count>
 68c:	b1 cf       	rjmp	.-158    	; 0x5f0 <updateBitstream+0x30>

Disassembly of section .text.updateLED:

0000057e <updateLED>:
 57e:	0f 93       	push	r16
 580:	1f 93       	push	r17
 582:	cf 93       	push	r28
 584:	df 93       	push	r29
 586:	ec 01       	movw	r28, r24
 588:	0e e4       	ldi	r16, 0x4E	; 78
 58a:	11 e0       	ldi	r17, 0x01	; 1
 58c:	f8 01       	movw	r30, r16
 58e:	61 81       	ldd	r22, Z+1	; 0x01
 590:	a2 d3       	rcall	.+1860   	; 0xcd6 <setLedState>
 592:	f8 01       	movw	r30, r16
 594:	62 81       	ldd	r22, Z+2	; 0x02
 596:	ce 01       	movw	r24, r28
 598:	7d d3       	rcall	.+1786   	; 0xc94 <setLedMode>
 59a:	f8 01       	movw	r30, r16
 59c:	63 81       	ldd	r22, Z+3	; 0x03
 59e:	ce 01       	movw	r24, r28
 5a0:	7c d3       	rcall	.+1784   	; 0xc9a <setLedIntensity>
 5a2:	f8 01       	movw	r30, r16
 5a4:	64 81       	ldd	r22, Z+4	; 0x04
 5a6:	75 81       	ldd	r23, Z+5	; 0x05
 5a8:	ce 01       	movw	r24, r28
 5aa:	7a d3       	rcall	.+1780   	; 0xca0 <setLedFrequency>
 5ac:	f8 01       	movw	r30, r16
 5ae:	66 81       	ldd	r22, Z+6	; 0x06
 5b0:	ce 01       	movw	r24, r28
 5b2:	7a d3       	rcall	.+1780   	; 0xca8 <setLedDutyCycle>
 5b4:	ce 01       	movw	r24, r28
 5b6:	df 91       	pop	r29
 5b8:	cf 91       	pop	r28
 5ba:	1f 91       	pop	r17
 5bc:	0f 91       	pop	r16
 5be:	77 c3       	rjmp	.+1774   	; 0xcae <updateLEDHW>

Disassembly of section .text.checkRF:

00000232 <checkRF>:
 232:	4f 92       	push	r4
 234:	5f 92       	push	r5
 236:	6f 92       	push	r6
 238:	7f 92       	push	r7
 23a:	8f 92       	push	r8
 23c:	af 92       	push	r10
 23e:	bf 92       	push	r11
 240:	cf 92       	push	r12
 242:	df 92       	push	r13
 244:	ef 92       	push	r14
 246:	0f 93       	push	r16
 248:	1f 93       	push	r17
 24a:	cf 93       	push	r28
 24c:	df 93       	push	r29
 24e:	00 d0       	rcall	.+0      	; 0x250 <checkRF+0x1e>
 250:	00 d0       	rcall	.+0      	; 0x252 <checkRF+0x20>
 252:	cd b7       	in	r28, 0x3d	; 61
 254:	de b7       	in	r29, 0x3e	; 62
 256:	2c 01       	movw	r4, r24
 258:	1a d2       	rcall	.+1076   	; 0x68e <nrf24_dataReady>
 25a:	88 23       	and	r24, r24
 25c:	e9 f3       	breq	.-6      	; 0x258 <checkRF+0x26>
 25e:	f8 94       	cli
 260:	8e e4       	ldi	r24, 0x4E	; 78
 262:	91 e0       	ldi	r25, 0x01	; 1
 264:	39 d1       	rcall	.+626    	; 0x4d8 <nrf24_getData>
 266:	19 82       	std	Y+1, r1	; 0x01
 268:	1a 82       	std	Y+2, r1	; 0x02
 26a:	1b 82       	std	Y+3, r1	; 0x03
 26c:	1c 82       	std	Y+4, r1	; 0x04
 26e:	68 eb       	ldi	r22, 0xB8	; 184
 270:	72 e1       	ldi	r23, 0x12	; 18
 272:	80 e0       	ldi	r24, 0x00	; 0
 274:	44 df       	rcall	.-376    	; 0xfe <uart_puts>
 276:	ce 01       	movw	r24, r28
 278:	01 96       	adiw	r24, 0x01	; 1
 27a:	5c 01       	movw	r10, r24
 27c:	3c 01       	movw	r6, r24
 27e:	90 e8       	ldi	r25, 0x80	; 128
 280:	89 2e       	mov	r8, r25
 282:	0e e4       	ldi	r16, 0x4E	; 78
 284:	11 e0       	ldi	r17, 0x01	; 1
 286:	9b eb       	ldi	r25, 0xBB	; 187
 288:	c9 2e       	mov	r12, r25
 28a:	92 e1       	ldi	r25, 0x12	; 18
 28c:	d9 2e       	mov	r13, r25
 28e:	90 e0       	ldi	r25, 0x00	; 0
 290:	e9 2e       	mov	r14, r25
 292:	f8 01       	movw	r30, r16
 294:	81 91       	ld	r24, Z+
 296:	8f 01       	movw	r16, r30
 298:	1f 92       	push	r1
 29a:	8f 93       	push	r24
 29c:	ef 92       	push	r14
 29e:	df 92       	push	r13
 2a0:	cf 92       	push	r12
 2a2:	bf 92       	push	r11
 2a4:	af 92       	push	r10
 2a6:	f8 d0       	rcall	.+496    	; 0x498 <sprintf>
 2a8:	88 2d       	mov	r24, r8
 2aa:	b3 01       	movw	r22, r6
 2ac:	28 df       	rcall	.-432    	; 0xfe <uart_puts>
 2ae:	0f b6       	in	r0, 0x3f	; 63
 2b0:	f8 94       	cli
 2b2:	de bf       	out	0x3e, r29	; 62
 2b4:	0f be       	out	0x3f, r0	; 63
 2b6:	cd bf       	out	0x3d, r28	; 61
 2b8:	91 e0       	ldi	r25, 0x01	; 1
 2ba:	05 35       	cpi	r16, 0x55	; 85
 2bc:	19 07       	cpc	r17, r25
 2be:	49 f7       	brne	.-46     	; 0x292 <checkRF+0x60>
 2c0:	90 91 4e 01 	lds	r25, 0x014E	; 0x80014e <RX_command_array>
 2c4:	f2 01       	movw	r30, r4
 2c6:	80 81       	ld	r24, Z
 2c8:	98 17       	cp	r25, r24
 2ca:	a1 f0       	breq	.+40     	; 0x2f4 <checkRF+0xc2>
 2cc:	78 94       	sei
 2ce:	0f 90       	pop	r0
 2d0:	0f 90       	pop	r0
 2d2:	0f 90       	pop	r0
 2d4:	0f 90       	pop	r0
 2d6:	df 91       	pop	r29
 2d8:	cf 91       	pop	r28
 2da:	1f 91       	pop	r17
 2dc:	0f 91       	pop	r16
 2de:	ef 90       	pop	r14
 2e0:	df 90       	pop	r13
 2e2:	cf 90       	pop	r12
 2e4:	bf 90       	pop	r11
 2e6:	af 90       	pop	r10
 2e8:	8f 90       	pop	r8
 2ea:	7f 90       	pop	r7
 2ec:	6f 90       	pop	r6
 2ee:	5f 90       	pop	r5
 2f0:	4f 90       	pop	r4
 2f2:	08 95       	ret
 2f4:	83 ec       	ldi	r24, 0xC3	; 195
 2f6:	99 e0       	ldi	r25, 0x09	; 9
 2f8:	01 97       	sbiw	r24, 0x01	; 1
 2fa:	f1 f7       	brne	.-4      	; 0x2f8 <checkRF+0xc6>
 2fc:	00 c0       	rjmp	.+0      	; 0x2fe <checkRF+0xcc>
 2fe:	00 00       	nop
 300:	8c e0       	ldi	r24, 0x0C	; 12
 302:	91 e0       	ldi	r25, 0x01	; 1
 304:	0b d1       	rcall	.+534    	; 0x51c <nrf24_send>
 306:	80 91 4f 01 	lds	r24, 0x014F	; 0x80014f <RX_command_array+0x1>
 30a:	8f 3f       	cpi	r24, 0xFF	; 255
 30c:	39 f0       	breq	.+14     	; 0x31c <checkRF+0xea>
 30e:	c2 01       	movw	r24, r4
 310:	36 d1       	rcall	.+620    	; 0x57e <updateLED>
 312:	60 ec       	ldi	r22, 0xC0	; 192
 314:	72 e1       	ldi	r23, 0x12	; 18
 316:	80 e0       	ldi	r24, 0x00	; 0
 318:	f2 de       	rcall	.-540    	; 0xfe <uart_puts>
 31a:	d8 cf       	rjmp	.-80     	; 0x2cc <checkRF+0x9a>
 31c:	51 d1       	rcall	.+674    	; 0x5c0 <updateBitstream>
 31e:	64 ed       	ldi	r22, 0xD4	; 212
 320:	72 e1       	ldi	r23, 0x12	; 18
 322:	80 e0       	ldi	r24, 0x00	; 0
 324:	ec de       	rcall	.-552    	; 0xfe <uart_puts>
 326:	80 91 1d 01 	lds	r24, 0x011D	; 0x80011d <bit_count>
 32a:	88 23       	and	r24, r24
 32c:	79 f2       	breq	.-98     	; 0x2cc <checkRF+0x9a>
 32e:	10 e0       	ldi	r17, 0x00	; 0
 330:	8b eb       	ldi	r24, 0xBB	; 187
 332:	c8 2e       	mov	r12, r24
 334:	82 e1       	ldi	r24, 0x12	; 18
 336:	d8 2e       	mov	r13, r24
 338:	80 e0       	ldi	r24, 0x00	; 0
 33a:	e8 2e       	mov	r14, r24
 33c:	e1 2f       	mov	r30, r17
 33e:	f0 e0       	ldi	r31, 0x00	; 0
 340:	e1 5e       	subi	r30, 0xE1	; 225
 342:	fe 4f       	sbci	r31, 0xFE	; 254
 344:	80 81       	ld	r24, Z
 346:	1f 92       	push	r1
 348:	8f 93       	push	r24
 34a:	ef 92       	push	r14
 34c:	df 92       	push	r13
 34e:	cf 92       	push	r12
 350:	bf 92       	push	r11
 352:	af 92       	push	r10
 354:	a1 d0       	rcall	.+322    	; 0x498 <sprintf>
 356:	88 2d       	mov	r24, r8
 358:	b3 01       	movw	r22, r6
 35a:	d1 de       	rcall	.-606    	; 0xfe <uart_puts>
 35c:	1f 5f       	subi	r17, 0xFF	; 255
 35e:	0f b6       	in	r0, 0x3f	; 63
 360:	f8 94       	cli
 362:	de bf       	out	0x3e, r29	; 62
 364:	0f be       	out	0x3f, r0	; 63
 366:	cd bf       	out	0x3d, r28	; 61
 368:	80 91 1d 01 	lds	r24, 0x011D	; 0x80011d <bit_count>
 36c:	18 17       	cp	r17, r24
 36e:	30 f3       	brcs	.-52     	; 0x33c <checkRF+0x10a>
 370:	ad cf       	rjmp	.-166    	; 0x2cc <checkRF+0x9a>

Disassembly of section .text.getBit:

000012eb <getBit-0x1>:
	...

000012ec <getBit>:
    12ec:	20 91 1c 01 	lds	r18, 0x011C	; 0x80011c <pos.2253>
    12f0:	30 91 1d 01 	lds	r19, 0x011D	; 0x80011d <bit_count>
    12f4:	23 17       	cp	r18, r19
    12f6:	68 f0       	brcs	.+26     	; 0x1312 <getBit+0x26>
    12f8:	10 92 1c 01 	sts	0x011C, r1	; 0x80011c <pos.2253>
    12fc:	20 e0       	ldi	r18, 0x00	; 0
    12fe:	30 e0       	ldi	r19, 0x00	; 0
    1300:	fc 01       	movw	r30, r24
    1302:	82 81       	ldd	r24, Z+2	; 0x02
    1304:	f9 01       	movw	r30, r18
    1306:	e1 5e       	subi	r30, 0xE1	; 225
    1308:	fe 4f       	sbci	r31, 0xFE	; 254
    130a:	82 30       	cpi	r24, 0x02	; 2
    130c:	69 f0       	breq	.+26     	; 0x1328 <getBit+0x3c>
    130e:	80 81       	ld	r24, Z
    1310:	08 95       	ret
    1312:	2f 5f       	subi	r18, 0xFF	; 255
    1314:	20 93 1c 01 	sts	0x011C, r18	; 0x80011c <pos.2253>
    1318:	30 e0       	ldi	r19, 0x00	; 0
    131a:	fc 01       	movw	r30, r24
    131c:	82 81       	ldd	r24, Z+2	; 0x02
    131e:	f9 01       	movw	r30, r18
    1320:	e1 5e       	subi	r30, 0xE1	; 225
    1322:	fe 4f       	sbci	r31, 0xFE	; 254
    1324:	82 30       	cpi	r24, 0x02	; 2
    1326:	99 f7       	brne	.-26     	; 0x130e <getBit+0x22>
    1328:	81 e0       	ldi	r24, 0x01	; 1
    132a:	90 81       	ld	r25, Z
    132c:	91 11       	cpse	r25, r1
    132e:	01 c0       	rjmp	.+2      	; 0x1332 <getBit+0x46>
    1330:	08 95       	ret
    1332:	80 e0       	ldi	r24, 0x00	; 0
    1334:	08 95       	ret

Disassembly of section .text.digitalPotWrite:

000003f6 <digitalPotWrite>:
 3f6:	cf 92       	push	r12
 3f8:	df 92       	push	r13
 3fa:	ef 92       	push	r14
 3fc:	ff 92       	push	r15
 3fe:	68 2f       	mov	r22, r24
 400:	70 e0       	ldi	r23, 0x00	; 0
 402:	80 e0       	ldi	r24, 0x00	; 0
 404:	90 e0       	ldi	r25, 0x00	; 0
 406:	b7 d1       	rcall	.+878    	; 0x776 <__floatsisf>
 408:	2a e0       	ldi	r18, 0x0A	; 10
 40a:	37 ed       	ldi	r19, 0xD7	; 215
 40c:	43 e2       	ldi	r20, 0x23	; 35
 40e:	5c e3       	ldi	r21, 0x3C	; 60
 410:	78 d1       	rcall	.+752    	; 0x702 <__mulsf3>
 412:	24 e1       	ldi	r18, 0x14	; 20
 414:	3e ea       	ldi	r19, 0xAE	; 174
 416:	47 e0       	ldi	r20, 0x07	; 7
 418:	5f e3       	ldi	r21, 0x3F	; 63
 41a:	73 d1       	rcall	.+742    	; 0x702 <__mulsf3>
 41c:	20 e0       	ldi	r18, 0x00	; 0
 41e:	30 e0       	ldi	r19, 0x00	; 0
 420:	40 e2       	ldi	r20, 0x20	; 32
 422:	50 e4       	ldi	r21, 0x40	; 64
 424:	6e d1       	rcall	.+732    	; 0x702 <__mulsf3>
 426:	20 e0       	ldi	r18, 0x00	; 0
 428:	30 e0       	ldi	r19, 0x00	; 0
 42a:	40 e2       	ldi	r20, 0x20	; 32
 42c:	50 e4       	ldi	r21, 0x40	; 64
 42e:	6b d1       	rcall	.+726    	; 0x706 <__divsf3>
 430:	20 e0       	ldi	r18, 0x00	; 0
 432:	30 e4       	ldi	r19, 0x40	; 64
 434:	4c e9       	ldi	r20, 0x9C	; 156
 436:	55 e4       	ldi	r21, 0x45	; 69
 438:	64 d1       	rcall	.+712    	; 0x702 <__mulsf3>
 43a:	20 e0       	ldi	r18, 0x00	; 0
 43c:	30 e4       	ldi	r19, 0x40	; 64
 43e:	4c e9       	ldi	r20, 0x9C	; 156
 440:	55 e4       	ldi	r21, 0x45	; 69
 442:	61 d1       	rcall	.+706    	; 0x706 <__divsf3>
 444:	20 e0       	ldi	r18, 0x00	; 0
 446:	30 e0       	ldi	r19, 0x00	; 0
 448:	40 e8       	ldi	r20, 0x80	; 128
 44a:	53 e4       	ldi	r21, 0x43	; 67
 44c:	5a d1       	rcall	.+692    	; 0x702 <__mulsf3>
 44e:	6b 01       	movw	r12, r22
 450:	7c 01       	movw	r14, r24
 452:	20 e0       	ldi	r18, 0x00	; 0
 454:	30 e0       	ldi	r19, 0x00	; 0
 456:	a9 01       	movw	r20, r18
 458:	58 d1       	rcall	.+688    	; 0x70a <__cmpsf2>
 45a:	87 fd       	sbrc	r24, 7
 45c:	1b c0       	rjmp	.+54     	; 0x494 <__EEPROM_REGION_LENGTH__+0x94>
 45e:	20 e0       	ldi	r18, 0x00	; 0
 460:	30 e0       	ldi	r19, 0x00	; 0
 462:	4f e7       	ldi	r20, 0x7F	; 127
 464:	53 e4       	ldi	r21, 0x43	; 67
 466:	c7 01       	movw	r24, r14
 468:	b6 01       	movw	r22, r12
 46a:	53 d1       	rcall	.+678    	; 0x712 <__gesf2>
 46c:	18 16       	cp	r1, r24
 46e:	84 f0       	brlt	.+32     	; 0x490 <__EEPROM_REGION_LENGTH__+0x90>
 470:	c7 01       	movw	r24, r14
 472:	b6 01       	movw	r22, r12
 474:	52 d1       	rcall	.+676    	; 0x71a <__fixunssfsi>
 476:	29 98       	cbi	0x05, 1	; 5
 478:	8d b5       	in	r24, 0x2d	; 45
 47a:	6e bd       	out	0x2e, r22	; 46
 47c:	0d b4       	in	r0, 0x2d	; 45
 47e:	07 fe       	sbrs	r0, 7
 480:	fd cf       	rjmp	.-6      	; 0x47c <__EEPROM_REGION_LENGTH__+0x7c>
 482:	8e b5       	in	r24, 0x2e	; 46
 484:	29 9a       	sbi	0x05, 1	; 5
 486:	ff 90       	pop	r15
 488:	ef 90       	pop	r14
 48a:	df 90       	pop	r13
 48c:	cf 90       	pop	r12
 48e:	08 95       	ret
 490:	6f ef       	ldi	r22, 0xFF	; 255
 492:	f1 cf       	rjmp	.-30     	; 0x476 <__EEPROM_REGION_LENGTH__+0x76>
 494:	60 e0       	ldi	r22, 0x00	; 0
 496:	ef cf       	rjmp	.-34     	; 0x476 <__EEPROM_REGION_LENGTH__+0x76>

Disassembly of section .text.initLEDObject:

000001c2 <initLEDObject>:
 1c2:	fc 01       	movw	r30, r24
 1c4:	81 e0       	ldi	r24, 0x01	; 1
 1c6:	80 83       	st	Z, r24
 1c8:	81 83       	std	Z+1, r24	; 0x01
 1ca:	12 82       	std	Z+2, r1	; 0x02
 1cc:	84 e6       	ldi	r24, 0x64	; 100
 1ce:	83 83       	std	Z+3, r24	; 0x03
 1d0:	80 e1       	ldi	r24, 0x10	; 16
 1d2:	97 e2       	ldi	r25, 0x27	; 39
 1d4:	95 83       	std	Z+5, r25	; 0x05
 1d6:	84 83       	std	Z+4, r24	; 0x04
 1d8:	82 e3       	ldi	r24, 0x32	; 50
 1da:	86 83       	std	Z+6, r24	; 0x06
 1dc:	08 95       	ret

Disassembly of section .text.setLedState:

00000cd6 <setLedState>:
 cd6:	fc 01       	movw	r30, r24
 cd8:	61 83       	std	Z+1, r22	; 0x01
 cda:	08 95       	ret

Disassembly of section .text.setLedMode:

00000c94 <setLedMode>:
 c94:	fc 01       	movw	r30, r24
 c96:	62 83       	std	Z+2, r22	; 0x02
 c98:	08 95       	ret

Disassembly of section .text.setLedIntensity:

00000c9a <setLedIntensity>:
 c9a:	fc 01       	movw	r30, r24
 c9c:	63 83       	std	Z+3, r22	; 0x03
 c9e:	08 95       	ret

Disassembly of section .text.getLedFrequency:

000012ac <getLedFrequency>:
    12ac:	fc 01       	movw	r30, r24
    12ae:	84 81       	ldd	r24, Z+4	; 0x04
    12b0:	95 81       	ldd	r25, Z+5	; 0x05
    12b2:	08 95       	ret

Disassembly of section .text.setLedFrequency:

00000ca0 <setLedFrequency>:
 ca0:	fc 01       	movw	r30, r24
 ca2:	75 83       	std	Z+5, r23	; 0x05
 ca4:	64 83       	std	Z+4, r22	; 0x04
 ca6:	08 95       	ret

Disassembly of section .text.getLedDutyCycle:

000012a6 <getLedDutyCycle>:
    12a6:	fc 01       	movw	r30, r24
    12a8:	86 81       	ldd	r24, Z+6	; 0x06
    12aa:	08 95       	ret

Disassembly of section .text.setLedDutyCycle:

00000ca8 <setLedDutyCycle>:
 ca8:	fc 01       	movw	r30, r24
 caa:	66 83       	std	Z+6, r22	; 0x06
 cac:	08 95       	ret

Disassembly of section .text.startupLED:

000001de <startupLED>:
 1de:	0f 93       	push	r16
 1e0:	1f 93       	push	r17
 1e2:	cf 93       	push	r28
 1e4:	8c 01       	movw	r16, r24
 1e6:	8a b1       	in	r24, 0x0a	; 10
 1e8:	80 6c       	ori	r24, 0xC0	; 192
 1ea:	8a b9       	out	0x0a, r24	; 10
 1ec:	80 e0       	ldi	r24, 0x00	; 0
 1ee:	03 d1       	rcall	.+518    	; 0x3f6 <digitalPotWrite>
 1f0:	5f 9a       	sbi	0x0b, 7	; 11
 1f2:	f8 01       	movw	r30, r16
 1f4:	81 81       	ldd	r24, Z+1	; 0x01
 1f6:	81 11       	cpse	r24, r1
 1f8:	1a c0       	rjmp	.+52     	; 0x22e <startupLED+0x50>
 1fa:	5e 98       	cbi	0x0b, 6	; 11
 1fc:	f8 01       	movw	r30, r16
 1fe:	83 81       	ldd	r24, Z+3	; 0x03
 200:	88 23       	and	r24, r24
 202:	89 f0       	breq	.+34     	; 0x226 <startupLED+0x48>
 204:	c0 e0       	ldi	r28, 0x00	; 0
 206:	ff ef       	ldi	r31, 0xFF	; 255
 208:	29 ef       	ldi	r18, 0xF9	; 249
 20a:	80 e0       	ldi	r24, 0x00	; 0
 20c:	f1 50       	subi	r31, 0x01	; 1
 20e:	20 40       	sbci	r18, 0x00	; 0
 210:	80 40       	sbci	r24, 0x00	; 0
 212:	e1 f7       	brne	.-8      	; 0x20c <startupLED+0x2e>
 214:	00 c0       	rjmp	.+0      	; 0x216 <startupLED+0x38>
 216:	00 00       	nop
 218:	8c 2f       	mov	r24, r28
 21a:	ed d0       	rcall	.+474    	; 0x3f6 <digitalPotWrite>
 21c:	cf 5f       	subi	r28, 0xFF	; 255
 21e:	f8 01       	movw	r30, r16
 220:	83 81       	ldd	r24, Z+3	; 0x03
 222:	c8 17       	cp	r28, r24
 224:	80 f3       	brcs	.-32     	; 0x206 <startupLED+0x28>
 226:	cf 91       	pop	r28
 228:	1f 91       	pop	r17
 22a:	0f 91       	pop	r16
 22c:	08 95       	ret
 22e:	5e 9a       	sbi	0x0b, 6	; 11
 230:	e5 cf       	rjmp	.-54     	; 0x1fc <startupLED+0x1e>

Disassembly of section .text.updateLEDHW:

00000cae <updateLEDHW>:
 cae:	cf 93       	push	r28
 cb0:	df 93       	push	r29
 cb2:	ec 01       	movw	r28, r24
 cb4:	89 81       	ldd	r24, Y+1	; 0x01
 cb6:	81 11       	cpse	r24, r1
 cb8:	07 c0       	rjmp	.+14     	; 0xcc8 <updateLEDHW+0x1a>
 cba:	5e 98       	cbi	0x0b, 6	; 11
 cbc:	8b 81       	ldd	r24, Y+3	; 0x03
 cbe:	9b db       	rcall	.-2250   	; 0x3f6 <digitalPotWrite>
 cc0:	ce 01       	movw	r24, r28
 cc2:	df 91       	pop	r29
 cc4:	cf 91       	pop	r28
 cc6:	24 c2       	rjmp	.+1096   	; 0x1110 <setupTimer>
 cc8:	5e 9a       	sbi	0x0b, 6	; 11
 cca:	8b 81       	ldd	r24, Y+3	; 0x03
 ccc:	94 db       	rcall	.-2264   	; 0x3f6 <digitalPotWrite>
 cce:	ce 01       	movw	r24, r28
 cd0:	df 91       	pop	r29
 cd2:	cf 91       	pop	r28
 cd4:	1d c2       	rjmp	.+1082   	; 0x1110 <setupTimer>

Disassembly of section .text.__vector_11:

00001336 <__vector_11>:
    1336:	1f 92       	push	r1
    1338:	0f 92       	push	r0
    133a:	0f b6       	in	r0, 0x3f	; 63
    133c:	0f 92       	push	r0
    133e:	11 24       	eor	r1, r1
    1340:	2f 93       	push	r18
    1342:	3f 93       	push	r19
    1344:	4f 93       	push	r20
    1346:	5f 93       	push	r21
    1348:	6f 93       	push	r22
    134a:	7f 93       	push	r23
    134c:	8f 93       	push	r24
    134e:	9f 93       	push	r25
    1350:	af 93       	push	r26
    1352:	bf 93       	push	r27
    1354:	ef 93       	push	r30
    1356:	ff 93       	push	r31
    1358:	80 e0       	ldi	r24, 0x00	; 0
    135a:	91 e0       	ldi	r25, 0x01	; 1
    135c:	c7 df       	rcall	.-114    	; 0x12ec <getBit>
    135e:	e8 2f       	mov	r30, r24
    1360:	f0 e0       	ldi	r31, 0x00	; 0
    1362:	ee 0f       	add	r30, r30
    1364:	ff 1f       	adc	r31, r31
    1366:	e8 5e       	subi	r30, 0xE8	; 232
    1368:	fe 4f       	sbci	r31, 0xFE	; 254
    136a:	01 90       	ld	r0, Z+
    136c:	f0 81       	ld	r31, Z
    136e:	e0 2d       	mov	r30, r0
    1370:	20 81       	ld	r18, Z
    1372:	31 81       	ldd	r19, Z+1	; 0x01
    1374:	30 93 8b 00 	sts	0x008B, r19	; 0x80008b <__TEXT_REGION_LENGTH__+0x7f808b>
    1378:	20 93 8a 00 	sts	0x008A, r18	; 0x80008a <__TEXT_REGION_LENGTH__+0x7f808a>
    137c:	81 11       	cpse	r24, r1
    137e:	12 c0       	rjmp	.+36     	; 0x13a4 <__vector_11+0x6e>
    1380:	5e 98       	cbi	0x0b, 6	; 11
    1382:	ff 91       	pop	r31
    1384:	ef 91       	pop	r30
    1386:	bf 91       	pop	r27
    1388:	af 91       	pop	r26
    138a:	9f 91       	pop	r25
    138c:	8f 91       	pop	r24
    138e:	7f 91       	pop	r23
    1390:	6f 91       	pop	r22
    1392:	5f 91       	pop	r21
    1394:	4f 91       	pop	r20
    1396:	3f 91       	pop	r19
    1398:	2f 91       	pop	r18
    139a:	0f 90       	pop	r0
    139c:	0f be       	out	0x3f, r0	; 63
    139e:	0f 90       	pop	r0
    13a0:	1f 90       	pop	r1
    13a2:	18 95       	reti
    13a4:	5e 9a       	sbi	0x0b, 6	; 11
    13a6:	ed cf       	rjmp	.-38     	; 0x1382 <__vector_11+0x4c>

Disassembly of section .text.__vector_12:

000013a8 <__vector_12>:
    13a8:	1f 92       	push	r1
    13aa:	0f 92       	push	r0
    13ac:	0f b6       	in	r0, 0x3f	; 63
    13ae:	0f 92       	push	r0
    13b0:	11 24       	eor	r1, r1
    13b2:	8f 93       	push	r24
    13b4:	8b b1       	in	r24, 0x0b	; 11
    13b6:	5e 98       	cbi	0x0b, 6	; 11
    13b8:	8f 91       	pop	r24
    13ba:	0f 90       	pop	r0
    13bc:	0f be       	out	0x3f, r0	; 63
    13be:	0f 90       	pop	r0
    13c0:	1f 90       	pop	r1
    13c2:	18 95       	reti

Disassembly of section .text.startup.main:

000000ca <main>:
  ca:	53 d1       	rcall	.+678    	; 0x372 <uart_init>
  cc:	64 ec       	ldi	r22, 0xC4	; 196
  ce:	73 e1       	ldi	r23, 0x13	; 19
  d0:	80 e0       	ldi	r24, 0x00	; 0
  d2:	15 d0       	rcall	.+42     	; 0xfe <uart_puts>
  d4:	6b ec       	ldi	r22, 0xCB	; 203
  d6:	73 e1       	ldi	r23, 0x13	; 19
  d8:	80 e0       	ldi	r24, 0x00	; 0
  da:	11 d0       	rcall	.+34     	; 0xfe <uart_puts>
  dc:	84 b1       	in	r24, 0x04	; 4
  de:	8e 62       	ori	r24, 0x2E	; 46
  e0:	84 b9       	out	0x04, r24	; 4
  e2:	80 e5       	ldi	r24, 0x50	; 80
  e4:	8c bd       	out	0x2c, r24	; 44
  e6:	23 d0       	rcall	.+70     	; 0x12e <nrf24_init>
  e8:	67 e0       	ldi	r22, 0x07	; 7
  ea:	82 e0       	ldi	r24, 0x02	; 2
  ec:	31 d0       	rcall	.+98     	; 0x150 <nrf24_config>
  ee:	80 e0       	ldi	r24, 0x00	; 0
  f0:	91 e0       	ldi	r25, 0x01	; 1
  f2:	67 d0       	rcall	.+206    	; 0x1c2 <initLEDObject>
  f4:	80 e0       	ldi	r24, 0x00	; 0
  f6:	91 e0       	ldi	r25, 0x01	; 1
  f8:	72 d0       	rcall	.+228    	; 0x1de <startupLED>
  fa:	9b d0       	rcall	.+310    	; 0x232 <checkRF>
  fc:	fe cf       	rjmp	.-4      	; 0xfa <main+0x30>

Disassembly of section .text.nrf24_ce_digitalWrite.part.0:

000006c2 <nrf24_ce_digitalWrite.part.0>:
 6c2:	28 9a       	sbi	0x05, 0	; 5
 6c4:	08 95       	ret

Disassembly of section .text.nrf24_csn_digitalWrite.part.1:

00000396 <nrf24_csn_digitalWrite.part.1>:
 396:	2a 9a       	sbi	0x05, 2	; 5
 398:	08 95       	ret

Disassembly of section .text.nrf24_getStatus:

00000d3e <nrf24_getStatus>:
 d3e:	cf 93       	push	r28
 d40:	2a 98       	cbi	0x05, 2	; 5
 d42:	8d b5       	in	r24, 0x2d	; 45
 d44:	8f ef       	ldi	r24, 0xFF	; 255
 d46:	8e bd       	out	0x2e, r24	; 46
 d48:	0d b4       	in	r0, 0x2d	; 45
 d4a:	07 fe       	sbrs	r0, 7
 d4c:	fd cf       	rjmp	.-6      	; 0xd48 <nrf24_getStatus+0xa>
 d4e:	ce b5       	in	r28, 0x2e	; 46
 d50:	22 db       	rcall	.-2492   	; 0x396 <nrf24_csn_digitalWrite.part.1>
 d52:	8c 2f       	mov	r24, r28
 d54:	cf 91       	pop	r28
 d56:	08 95       	ret

Disassembly of section .text.nrf24_configRegister:

000003b4 <nrf24_configRegister>:
 3b4:	2a 98       	cbi	0x05, 2	; 5
 3b6:	8f 71       	andi	r24, 0x1F	; 31
 3b8:	80 62       	ori	r24, 0x20	; 32
 3ba:	9d b5       	in	r25, 0x2d	; 45
 3bc:	8e bd       	out	0x2e, r24	; 46
 3be:	0d b4       	in	r0, 0x2d	; 45
 3c0:	07 fe       	sbrs	r0, 7
 3c2:	fd cf       	rjmp	.-6      	; 0x3be <nrf24_configRegister+0xa>
 3c4:	8e b5       	in	r24, 0x2e	; 46
 3c6:	8d b5       	in	r24, 0x2d	; 45
 3c8:	6e bd       	out	0x2e, r22	; 46
 3ca:	0d b4       	in	r0, 0x2d	; 45
 3cc:	07 fe       	sbrs	r0, 7
 3ce:	fd cf       	rjmp	.-6      	; 0x3ca <nrf24_configRegister+0x16>
 3d0:	8e b5       	in	r24, 0x2e	; 46
 3d2:	e1 cf       	rjmp	.-62     	; 0x396 <nrf24_csn_digitalWrite.part.1>

Disassembly of section .text.nrf24_getData:

000004d8 <nrf24_getData>:
 4d8:	2a 98       	cbi	0x05, 2	; 5
 4da:	2d b5       	in	r18, 0x2d	; 45
 4dc:	21 e6       	ldi	r18, 0x61	; 97
 4de:	2e bd       	out	0x2e, r18	; 46
 4e0:	0d b4       	in	r0, 0x2d	; 45
 4e2:	07 fe       	sbrs	r0, 7
 4e4:	fd cf       	rjmp	.-6      	; 0x4e0 <nrf24_getData+0x8>
 4e6:	2e b5       	in	r18, 0x2e	; 46
 4e8:	20 91 07 01 	lds	r18, 0x0107	; 0x800107 <payload_len>
 4ec:	22 23       	and	r18, r18
 4ee:	91 f0       	breq	.+36     	; 0x514 <nrf24_getData+0x3c>
 4f0:	fc 01       	movw	r30, r24
 4f2:	21 50       	subi	r18, 0x01	; 1
 4f4:	30 e0       	ldi	r19, 0x00	; 0
 4f6:	2f 5f       	subi	r18, 0xFF	; 255
 4f8:	3f 4f       	sbci	r19, 0xFF	; 255
 4fa:	28 0f       	add	r18, r24
 4fc:	39 1f       	adc	r19, r25
 4fe:	80 81       	ld	r24, Z
 500:	9d b5       	in	r25, 0x2d	; 45
 502:	8e bd       	out	0x2e, r24	; 46
 504:	0d b4       	in	r0, 0x2d	; 45
 506:	07 fe       	sbrs	r0, 7
 508:	fd cf       	rjmp	.-6      	; 0x504 <nrf24_getData+0x2c>
 50a:	8e b5       	in	r24, 0x2e	; 46
 50c:	81 93       	st	Z+, r24
 50e:	e2 17       	cp	r30, r18
 510:	f3 07       	cpc	r31, r19
 512:	a9 f7       	brne	.-22     	; 0x4fe <nrf24_getData+0x26>
 514:	40 df       	rcall	.-384    	; 0x396 <nrf24_csn_digitalWrite.part.1>
 516:	60 e4       	ldi	r22, 0x40	; 64
 518:	87 e0       	ldi	r24, 0x07	; 7
 51a:	4c cf       	rjmp	.-360    	; 0x3b4 <nrf24_configRegister>

Disassembly of section .text.nrf24_powerUpRx:

000003d4 <nrf24_powerUpRx>:
 3d4:	2a 98       	cbi	0x05, 2	; 5
 3d6:	8d b5       	in	r24, 0x2d	; 45
 3d8:	82 ee       	ldi	r24, 0xE2	; 226
 3da:	8e bd       	out	0x2e, r24	; 46
 3dc:	0d b4       	in	r0, 0x2d	; 45
 3de:	07 fe       	sbrs	r0, 7
 3e0:	fd cf       	rjmp	.-6      	; 0x3dc <nrf24_powerUpRx+0x8>
 3e2:	8e b5       	in	r24, 0x2e	; 46
 3e4:	d8 df       	rcall	.-80     	; 0x396 <nrf24_csn_digitalWrite.part.1>
 3e6:	60 e7       	ldi	r22, 0x70	; 112
 3e8:	87 e0       	ldi	r24, 0x07	; 7
 3ea:	e4 df       	rcall	.-56     	; 0x3b4 <nrf24_configRegister>
 3ec:	28 98       	cbi	0x05, 0	; 5
 3ee:	6b e0       	ldi	r22, 0x0B	; 11
 3f0:	80 e0       	ldi	r24, 0x00	; 0
 3f2:	e0 df       	rcall	.-64     	; 0x3b4 <nrf24_configRegister>
 3f4:	66 c1       	rjmp	.+716    	; 0x6c2 <nrf24_ce_digitalWrite.part.0>

Disassembly of section .text.nrf24_config:

00000150 <nrf24_config>:
 150:	cf 93       	push	r28
 152:	df 93       	push	r29
 154:	c8 2f       	mov	r28, r24
 156:	d6 2f       	mov	r29, r22
 158:	6b ed       	ldi	r22, 0xDB	; 219
 15a:	73 e1       	ldi	r23, 0x13	; 19
 15c:	80 e0       	ldi	r24, 0x00	; 0
 15e:	cf df       	rcall	.-98     	; 0xfe <uart_puts>
 160:	d0 93 07 01 	sts	0x0107, r29	; 0x800107 <payload_len>
 164:	6c 2f       	mov	r22, r28
 166:	85 e0       	ldi	r24, 0x05	; 5
 168:	25 d1       	rcall	.+586    	; 0x3b4 <nrf24_configRegister>
 16a:	60 e0       	ldi	r22, 0x00	; 0
 16c:	81 e1       	ldi	r24, 0x11	; 17
 16e:	22 d1       	rcall	.+580    	; 0x3b4 <nrf24_configRegister>
 170:	60 91 07 01 	lds	r22, 0x0107	; 0x800107 <payload_len>
 174:	82 e1       	ldi	r24, 0x12	; 18
 176:	1e d1       	rcall	.+572    	; 0x3b4 <nrf24_configRegister>
 178:	60 e0       	ldi	r22, 0x00	; 0
 17a:	83 e1       	ldi	r24, 0x13	; 19
 17c:	1b d1       	rcall	.+566    	; 0x3b4 <nrf24_configRegister>
 17e:	60 e0       	ldi	r22, 0x00	; 0
 180:	84 e1       	ldi	r24, 0x14	; 20
 182:	18 d1       	rcall	.+560    	; 0x3b4 <nrf24_configRegister>
 184:	60 e0       	ldi	r22, 0x00	; 0
 186:	85 e1       	ldi	r24, 0x15	; 21
 188:	15 d1       	rcall	.+554    	; 0x3b4 <nrf24_configRegister>
 18a:	60 e0       	ldi	r22, 0x00	; 0
 18c:	86 e1       	ldi	r24, 0x16	; 22
 18e:	12 d1       	rcall	.+548    	; 0x3b4 <nrf24_configRegister>
 190:	66 e0       	ldi	r22, 0x06	; 6
 192:	86 e0       	ldi	r24, 0x06	; 6
 194:	0f d1       	rcall	.+542    	; 0x3b4 <nrf24_configRegister>
 196:	68 e0       	ldi	r22, 0x08	; 8
 198:	80 e0       	ldi	r24, 0x00	; 0
 19a:	0c d1       	rcall	.+536    	; 0x3b4 <nrf24_configRegister>
 19c:	60 e0       	ldi	r22, 0x00	; 0
 19e:	81 e0       	ldi	r24, 0x01	; 1
 1a0:	09 d1       	rcall	.+530    	; 0x3b4 <nrf24_configRegister>
 1a2:	63 e0       	ldi	r22, 0x03	; 3
 1a4:	82 e0       	ldi	r24, 0x02	; 2
 1a6:	06 d1       	rcall	.+524    	; 0x3b4 <nrf24_configRegister>
 1a8:	6f e4       	ldi	r22, 0x4F	; 79
 1aa:	84 e0       	ldi	r24, 0x04	; 4
 1ac:	03 d1       	rcall	.+518    	; 0x3b4 <nrf24_configRegister>
 1ae:	60 e0       	ldi	r22, 0x00	; 0
 1b0:	8c e1       	ldi	r24, 0x1C	; 28
 1b2:	00 d1       	rcall	.+512    	; 0x3b4 <nrf24_configRegister>
 1b4:	0f d1       	rcall	.+542    	; 0x3d4 <nrf24_powerUpRx>
 1b6:	69 ef       	ldi	r22, 0xF9	; 249
 1b8:	73 e1       	ldi	r23, 0x13	; 19
 1ba:	80 e0       	ldi	r24, 0x00	; 0
 1bc:	df 91       	pop	r29
 1be:	cf 91       	pop	r28
 1c0:	9e cf       	rjmp	.-196    	; 0xfe <uart_puts>

Disassembly of section .text.nrf24_powerUpTx:

00000c88 <nrf24_powerUpTx>:
 c88:	60 e7       	ldi	r22, 0x70	; 112
 c8a:	87 e0       	ldi	r24, 0x07	; 7
 c8c:	93 db       	rcall	.-2266   	; 0x3b4 <nrf24_configRegister>
 c8e:	6a e0       	ldi	r22, 0x0A	; 10
 c90:	80 e0       	ldi	r24, 0x00	; 0
 c92:	90 cb       	rjmp	.-2272   	; 0x3b4 <nrf24_configRegister>

Disassembly of section .text.nrf24_send:

0000051c <nrf24_send>:
 51c:	cf 93       	push	r28
 51e:	df 93       	push	r29
 520:	d8 2f       	mov	r29, r24
 522:	c9 2f       	mov	r28, r25
 524:	28 98       	cbi	0x05, 0	; 5
 526:	b0 d3       	rcall	.+1888   	; 0xc88 <nrf24_powerUpTx>
 528:	2a 98       	cbi	0x05, 2	; 5
 52a:	8d b5       	in	r24, 0x2d	; 45
 52c:	81 ee       	ldi	r24, 0xE1	; 225
 52e:	8e bd       	out	0x2e, r24	; 46
 530:	0d b4       	in	r0, 0x2d	; 45
 532:	07 fe       	sbrs	r0, 7
 534:	fd cf       	rjmp	.-6      	; 0x530 <nrf24_send+0x14>
 536:	8e b5       	in	r24, 0x2e	; 46
 538:	2e df       	rcall	.-420    	; 0x396 <nrf24_csn_digitalWrite.part.1>
 53a:	2a 98       	cbi	0x05, 2	; 5
 53c:	8d b5       	in	r24, 0x2d	; 45
 53e:	80 ea       	ldi	r24, 0xA0	; 160
 540:	8e bd       	out	0x2e, r24	; 46
 542:	0d b4       	in	r0, 0x2d	; 45
 544:	07 fe       	sbrs	r0, 7
 546:	fd cf       	rjmp	.-6      	; 0x542 <nrf24_send+0x26>
 548:	8e b5       	in	r24, 0x2e	; 46
 54a:	20 91 07 01 	lds	r18, 0x0107	; 0x800107 <payload_len>
 54e:	22 23       	and	r18, r18
 550:	91 f0       	breq	.+36     	; 0x576 <nrf24_send+0x5a>
 552:	ed 2f       	mov	r30, r29
 554:	fc 2f       	mov	r31, r28
 556:	21 50       	subi	r18, 0x01	; 1
 558:	30 e0       	ldi	r19, 0x00	; 0
 55a:	2f 5f       	subi	r18, 0xFF	; 255
 55c:	3f 4f       	sbci	r19, 0xFF	; 255
 55e:	2e 0f       	add	r18, r30
 560:	3f 1f       	adc	r19, r31
 562:	81 91       	ld	r24, Z+
 564:	9d b5       	in	r25, 0x2d	; 45
 566:	8e bd       	out	0x2e, r24	; 46
 568:	0d b4       	in	r0, 0x2d	; 45
 56a:	07 fe       	sbrs	r0, 7
 56c:	fd cf       	rjmp	.-6      	; 0x568 <nrf24_send+0x4c>
 56e:	8e b5       	in	r24, 0x2e	; 46
 570:	e2 17       	cp	r30, r18
 572:	f3 07       	cpc	r31, r19
 574:	b1 f7       	brne	.-20     	; 0x562 <nrf24_send+0x46>
 576:	0f df       	rcall	.-482    	; 0x396 <nrf24_csn_digitalWrite.part.1>
 578:	df 91       	pop	r29
 57a:	cf 91       	pop	r28
 57c:	a2 c0       	rjmp	.+324    	; 0x6c2 <nrf24_ce_digitalWrite.part.0>

Disassembly of section .text.nrf24_readRegister:

00000d02 <nrf24_readRegister>:
 d02:	2a 98       	cbi	0x05, 2	; 5
 d04:	8f 71       	andi	r24, 0x1F	; 31
 d06:	9d b5       	in	r25, 0x2d	; 45
 d08:	8e bd       	out	0x2e, r24	; 46
 d0a:	0d b4       	in	r0, 0x2d	; 45
 d0c:	07 fe       	sbrs	r0, 7
 d0e:	fd cf       	rjmp	.-6      	; 0xd0a <nrf24_readRegister+0x8>
 d10:	8e b5       	in	r24, 0x2e	; 46
 d12:	44 23       	and	r20, r20
 d14:	99 f0       	breq	.+38     	; 0xd3c <nrf24_readRegister+0x3a>
 d16:	fb 01       	movw	r30, r22
 d18:	41 50       	subi	r20, 0x01	; 1
 d1a:	24 2f       	mov	r18, r20
 d1c:	30 e0       	ldi	r19, 0x00	; 0
 d1e:	2f 5f       	subi	r18, 0xFF	; 255
 d20:	3f 4f       	sbci	r19, 0xFF	; 255
 d22:	26 0f       	add	r18, r22
 d24:	37 1f       	adc	r19, r23
 d26:	80 81       	ld	r24, Z
 d28:	9d b5       	in	r25, 0x2d	; 45
 d2a:	8e bd       	out	0x2e, r24	; 46
 d2c:	0d b4       	in	r0, 0x2d	; 45
 d2e:	07 fe       	sbrs	r0, 7
 d30:	fd cf       	rjmp	.-6      	; 0xd2c <nrf24_readRegister+0x2a>
 d32:	8e b5       	in	r24, 0x2e	; 46
 d34:	81 93       	st	Z+, r24
 d36:	e2 17       	cp	r30, r18
 d38:	f3 07       	cpc	r31, r19
 d3a:	a9 f7       	brne	.-22     	; 0xd26 <nrf24_readRegister+0x24>
 d3c:	2c cb       	rjmp	.-2472   	; 0x396 <nrf24_csn_digitalWrite.part.1>

Disassembly of section .text.nrf24_dataReady:

0000068e <nrf24_dataReady>:
 68e:	cf 93       	push	r28
 690:	df 93       	push	r29
 692:	1f 92       	push	r1
 694:	cd b7       	in	r28, 0x3d	; 61
 696:	de b7       	in	r29, 0x3e	; 62
 698:	52 d3       	rcall	.+1700   	; 0xd3e <nrf24_getStatus>
 69a:	86 ff       	sbrs	r24, 6
 69c:	05 c0       	rjmp	.+10     	; 0x6a8 <nrf24_dataReady+0x1a>
 69e:	81 e0       	ldi	r24, 0x01	; 1
 6a0:	0f 90       	pop	r0
 6a2:	df 91       	pop	r29
 6a4:	cf 91       	pop	r28
 6a6:	08 95       	ret
 6a8:	41 e0       	ldi	r20, 0x01	; 1
 6aa:	be 01       	movw	r22, r28
 6ac:	6f 5f       	subi	r22, 0xFF	; 255
 6ae:	7f 4f       	sbci	r23, 0xFF	; 255
 6b0:	87 e1       	ldi	r24, 0x17	; 23
 6b2:	27 d3       	rcall	.+1614   	; 0xd02 <nrf24_readRegister>
 6b4:	89 81       	ldd	r24, Y+1	; 0x01
 6b6:	80 95       	com	r24
 6b8:	81 70       	andi	r24, 0x01	; 1
 6ba:	0f 90       	pop	r0
 6bc:	df 91       	pop	r29
 6be:	cf 91       	pop	r28
 6c0:	08 95       	ret

Disassembly of section .text.nrf24_writeRegister:

000006c6 <nrf24_writeRegister>:
 6c6:	2a 98       	cbi	0x05, 2	; 5
 6c8:	8f 71       	andi	r24, 0x1F	; 31
 6ca:	80 62       	ori	r24, 0x20	; 32
 6cc:	9d b5       	in	r25, 0x2d	; 45
 6ce:	8e bd       	out	0x2e, r24	; 46
 6d0:	0d b4       	in	r0, 0x2d	; 45
 6d2:	07 fe       	sbrs	r0, 7
 6d4:	fd cf       	rjmp	.-6      	; 0x6d0 <nrf24_writeRegister+0xa>
 6d6:	8e b5       	in	r24, 0x2e	; 46
 6d8:	44 23       	and	r20, r20
 6da:	91 f0       	breq	.+36     	; 0x700 <nrf24_writeRegister+0x3a>
 6dc:	fb 01       	movw	r30, r22
 6de:	41 50       	subi	r20, 0x01	; 1
 6e0:	24 2f       	mov	r18, r20
 6e2:	30 e0       	ldi	r19, 0x00	; 0
 6e4:	2f 5f       	subi	r18, 0xFF	; 255
 6e6:	3f 4f       	sbci	r19, 0xFF	; 255
 6e8:	26 0f       	add	r18, r22
 6ea:	37 1f       	adc	r19, r23
 6ec:	81 91       	ld	r24, Z+
 6ee:	9d b5       	in	r25, 0x2d	; 45
 6f0:	8e bd       	out	0x2e, r24	; 46
 6f2:	0d b4       	in	r0, 0x2d	; 45
 6f4:	07 fe       	sbrs	r0, 7
 6f6:	fd cf       	rjmp	.-6      	; 0x6f2 <nrf24_writeRegister+0x2c>
 6f8:	8e b5       	in	r24, 0x2e	; 46
 6fa:	e2 17       	cp	r30, r18
 6fc:	f3 07       	cpc	r31, r19
 6fe:	b1 f7       	brne	.-20     	; 0x6ec <nrf24_writeRegister+0x26>
 700:	4a ce       	rjmp	.-876    	; 0x396 <nrf24_csn_digitalWrite.part.1>

Disassembly of section .text.nrf24_rx_address:

0000038a <nrf24_rx_address>:
 38a:	28 98       	cbi	0x05, 0	; 5
 38c:	45 e0       	ldi	r20, 0x05	; 5
 38e:	bc 01       	movw	r22, r24
 390:	8b e0       	ldi	r24, 0x0B	; 11
 392:	99 d1       	rcall	.+818    	; 0x6c6 <nrf24_writeRegister>
 394:	96 c1       	rjmp	.+812    	; 0x6c2 <nrf24_ce_digitalWrite.part.0>

Disassembly of section .text.nrf24_tx_address:

0000039a <nrf24_tx_address>:
 39a:	cf 93       	push	r28
 39c:	df 93       	push	r29
 39e:	ec 01       	movw	r28, r24
 3a0:	45 e0       	ldi	r20, 0x05	; 5
 3a2:	bc 01       	movw	r22, r24
 3a4:	8a e0       	ldi	r24, 0x0A	; 10
 3a6:	8f d1       	rcall	.+798    	; 0x6c6 <nrf24_writeRegister>
 3a8:	45 e0       	ldi	r20, 0x05	; 5
 3aa:	be 01       	movw	r22, r28
 3ac:	80 e1       	ldi	r24, 0x10	; 16
 3ae:	df 91       	pop	r29
 3b0:	cf 91       	pop	r28
 3b2:	89 c1       	rjmp	.+786    	; 0x6c6 <nrf24_writeRegister>

Disassembly of section .text.nrf24_init:

0000012e <nrf24_init>:
 12e:	60 e0       	ldi	r22, 0x00	; 0
 130:	74 e1       	ldi	r23, 0x14	; 20
 132:	80 e0       	ldi	r24, 0x00	; 0
 134:	e4 df       	rcall	.-56     	; 0xfe <uart_puts>
 136:	20 9a       	sbi	0x04, 0	; 4
 138:	83 e1       	ldi	r24, 0x13	; 19
 13a:	91 e0       	ldi	r25, 0x01	; 1
 13c:	2e d1       	rcall	.+604    	; 0x39a <nrf24_tx_address>
 13e:	8e e0       	ldi	r24, 0x0E	; 14
 140:	91 e0       	ldi	r25, 0x01	; 1
 142:	23 d1       	rcall	.+582    	; 0x38a <nrf24_rx_address>
 144:	28 98       	cbi	0x05, 0	; 5
 146:	27 d1       	rcall	.+590    	; 0x396 <nrf24_csn_digitalWrite.part.1>
 148:	69 ef       	ldi	r22, 0xF9	; 249
 14a:	73 e1       	ldi	r23, 0x13	; 19
 14c:	80 e0       	ldi	r24, 0x00	; 0
 14e:	d7 cf       	rjmp	.-82     	; 0xfe <uart_puts>

Disassembly of section .text.setupTimer:

00001110 <setupTimer>:
    1110:	0f 93       	push	r16
    1112:	1f 93       	push	r17
    1114:	cf 93       	push	r28
    1116:	df 93       	push	r29
    1118:	ec 01       	movw	r28, r24
    111a:	f8 94       	cli
    111c:	10 92 80 00 	sts	0x0080, r1	; 0x800080 <__TEXT_REGION_LENGTH__+0x7f8080>
    1120:	10 92 81 00 	sts	0x0081, r1	; 0x800081 <__TEXT_REGION_LENGTH__+0x7f8081>
    1124:	10 92 85 00 	sts	0x0085, r1	; 0x800085 <__TEXT_REGION_LENGTH__+0x7f8085>
    1128:	10 92 84 00 	sts	0x0084, r1	; 0x800084 <__TEXT_REGION_LENGTH__+0x7f8084>
    112c:	8a 81       	ldd	r24, Y+2	; 0x02
    112e:	81 30       	cpi	r24, 0x01	; 1
    1130:	09 f4       	brne	.+2      	; 0x1134 <setupTimer+0x24>
    1132:	5a c0       	rjmp	.+180    	; 0x11e8 <setupTimer+0xd8>
    1134:	08 f4       	brcc	.+2      	; 0x1138 <setupTimer+0x28>
    1136:	4d c0       	rjmp	.+154    	; 0x11d2 <setupTimer+0xc2>
    1138:	82 30       	cpi	r24, 0x02	; 2
    113a:	09 f0       	breq	.+2      	; 0x113e <setupTimer+0x2e>
    113c:	41 c0       	rjmp	.+130    	; 0x11c0 <setupTimer+0xb0>
    113e:	ce 01       	movw	r24, r28
    1140:	b5 d0       	rcall	.+362    	; 0x12ac <getLedFrequency>
    1142:	9c 01       	movw	r18, r24
    1144:	40 e0       	ldi	r20, 0x00	; 0
    1146:	50 e0       	ldi	r21, 0x00	; 0
    1148:	60 e0       	ldi	r22, 0x00	; 0
    114a:	74 e2       	ldi	r23, 0x24	; 36
    114c:	84 ef       	ldi	r24, 0xF4	; 244
    114e:	90 e0       	ldi	r25, 0x00	; 0
    1150:	88 d0       	rcall	.+272    	; 0x1262 <__udivmodsi4>
    1152:	89 01       	movw	r16, r18
    1154:	01 50       	subi	r16, 0x01	; 1
    1156:	11 09       	sbc	r17, r1
    1158:	10 93 89 00 	sts	0x0089, r17	; 0x800089 <__TEXT_REGION_LENGTH__+0x7f8089>
    115c:	00 93 88 00 	sts	0x0088, r16	; 0x800088 <__TEXT_REGION_LENGTH__+0x7f8088>
    1160:	ce 01       	movw	r24, r28
    1162:	a1 d0       	rcall	.+322    	; 0x12a6 <getLedDutyCycle>
    1164:	99 e2       	ldi	r25, 0x29	; 41
    1166:	89 9f       	mul	r24, r25
    1168:	81 2d       	mov	r24, r1
    116a:	11 24       	eor	r1, r1
    116c:	82 95       	swap	r24
    116e:	8f 70       	andi	r24, 0x0F	; 15
    1170:	80 9f       	mul	r24, r16
    1172:	90 01       	movw	r18, r0
    1174:	81 9f       	mul	r24, r17
    1176:	30 0d       	add	r19, r0
    1178:	11 24       	eor	r1, r1
    117a:	30 93 0b 01 	sts	0x010B, r19	; 0x80010b <compB1_0+0x1>
    117e:	20 93 0a 01 	sts	0x010A, r18	; 0x80010a <compB1_0>
    1182:	ce 01       	movw	r24, r28
    1184:	90 d0       	rcall	.+288    	; 0x12a6 <getLedDutyCycle>
    1186:	64 e6       	ldi	r22, 0x64	; 100
    1188:	70 e0       	ldi	r23, 0x00	; 0
    118a:	9b 01       	movw	r18, r22
    118c:	28 1b       	sub	r18, r24
    118e:	31 09       	sbc	r19, r1
    1190:	c9 01       	movw	r24, r18
    1192:	a4 dd       	rcall	.-1208   	; 0xcdc <__divmodhi4>
    1194:	60 9f       	mul	r22, r16
    1196:	c0 01       	movw	r24, r0
    1198:	61 9f       	mul	r22, r17
    119a:	90 0d       	add	r25, r0
    119c:	70 9f       	mul	r23, r16
    119e:	90 0d       	add	r25, r0
    11a0:	11 24       	eor	r1, r1
    11a2:	90 93 09 01 	sts	0x0109, r25	; 0x800109 <compB0_1+0x1>
    11a6:	80 93 08 01 	sts	0x0108, r24	; 0x800108 <compB0_1>
    11aa:	80 91 08 01 	lds	r24, 0x0108	; 0x800108 <compB0_1>
    11ae:	90 91 09 01 	lds	r25, 0x0109	; 0x800109 <compB0_1+0x1>
    11b2:	90 93 8b 00 	sts	0x008B, r25	; 0x80008b <__TEXT_REGION_LENGTH__+0x7f808b>
    11b6:	80 93 8a 00 	sts	0x008A, r24	; 0x80008a <__TEXT_REGION_LENGTH__+0x7f808a>
    11ba:	86 e0       	ldi	r24, 0x06	; 6
    11bc:	80 93 6f 00 	sts	0x006F, r24	; 0x80006f <__TEXT_REGION_LENGTH__+0x7f806f>
    11c0:	89 e0       	ldi	r24, 0x09	; 9
    11c2:	80 93 81 00 	sts	0x0081, r24	; 0x800081 <__TEXT_REGION_LENGTH__+0x7f8081>
    11c6:	78 94       	sei
    11c8:	df 91       	pop	r29
    11ca:	cf 91       	pop	r28
    11cc:	1f 91       	pop	r17
    11ce:	0f 91       	pop	r16
    11d0:	08 95       	ret
    11d2:	f8 94       	cli
    11d4:	10 92 80 00 	sts	0x0080, r1	; 0x800080 <__TEXT_REGION_LENGTH__+0x7f8080>
    11d8:	10 92 81 00 	sts	0x0081, r1	; 0x800081 <__TEXT_REGION_LENGTH__+0x7f8081>
    11dc:	10 92 85 00 	sts	0x0085, r1	; 0x800085 <__TEXT_REGION_LENGTH__+0x7f8085>
    11e0:	10 92 84 00 	sts	0x0084, r1	; 0x800084 <__TEXT_REGION_LENGTH__+0x7f8084>
    11e4:	78 94       	sei
    11e6:	ec cf       	rjmp	.-40     	; 0x11c0 <setupTimer+0xb0>
    11e8:	ce 01       	movw	r24, r28
    11ea:	60 d0       	rcall	.+192    	; 0x12ac <getLedFrequency>
    11ec:	9c 01       	movw	r18, r24
    11ee:	40 e0       	ldi	r20, 0x00	; 0
    11f0:	50 e0       	ldi	r21, 0x00	; 0
    11f2:	60 e0       	ldi	r22, 0x00	; 0
    11f4:	74 e2       	ldi	r23, 0x24	; 36
    11f6:	84 ef       	ldi	r24, 0xF4	; 244
    11f8:	90 e0       	ldi	r25, 0x00	; 0
    11fa:	33 d0       	rcall	.+102    	; 0x1262 <__udivmodsi4>
    11fc:	21 50       	subi	r18, 0x01	; 1
    11fe:	31 09       	sbc	r19, r1
    1200:	30 93 89 00 	sts	0x0089, r19	; 0x800089 <__TEXT_REGION_LENGTH__+0x7f8089>
    1204:	20 93 88 00 	sts	0x0088, r18	; 0x800088 <__TEXT_REGION_LENGTH__+0x7f8088>
    1208:	82 e0       	ldi	r24, 0x02	; 2
    120a:	d8 cf       	rjmp	.-80     	; 0x11bc <setupTimer+0xac>

Disassembly of section .text.uart_init:

00000372 <uart_init>:
 372:	10 92 c5 00 	sts	0x00C5, r1	; 0x8000c5 <__TEXT_REGION_LENGTH__+0x7f80c5>
 376:	87 e6       	ldi	r24, 0x67	; 103
 378:	80 93 c4 00 	sts	0x00C4, r24	; 0x8000c4 <__TEXT_REGION_LENGTH__+0x7f80c4>
 37c:	86 e0       	ldi	r24, 0x06	; 6
 37e:	80 93 c2 00 	sts	0x00C2, r24	; 0x8000c2 <__TEXT_REGION_LENGTH__+0x7f80c2>
 382:	88 e1       	ldi	r24, 0x18	; 24
 384:	80 93 c1 00 	sts	0x00C1, r24	; 0x8000c1 <__TEXT_REGION_LENGTH__+0x7f80c1>
 388:	08 95       	ret

Disassembly of section .text.uart_puts:

000000fe <uart_puts>:
  fe:	9b 01       	movw	r18, r22
 100:	48 2f       	mov	r20, r24
 102:	f9 01       	movw	r30, r18
 104:	94 91       	lpm	r25, Z
 106:	47 fd       	sbrc	r20, 7
 108:	90 81       	ld	r25, Z
 10a:	99 23       	and	r25, r25
 10c:	79 f0       	breq	.+30     	; 0x12c <uart_puts+0x2e>
 10e:	2f 5f       	subi	r18, 0xFF	; 255
 110:	3f 4f       	sbci	r19, 0xFF	; 255
 112:	4f 4f       	sbci	r20, 0xFF	; 255
 114:	80 91 c0 00 	lds	r24, 0x00C0	; 0x8000c0 <__TEXT_REGION_LENGTH__+0x7f80c0>
 118:	85 ff       	sbrs	r24, 5
 11a:	fc cf       	rjmp	.-8      	; 0x114 <uart_puts+0x16>
 11c:	90 93 c6 00 	sts	0x00C6, r25	; 0x8000c6 <__TEXT_REGION_LENGTH__+0x7f80c6>
 120:	f9 01       	movw	r30, r18
 122:	94 91       	lpm	r25, Z
 124:	47 fd       	sbrc	r20, 7
 126:	90 81       	ld	r25, Z
 128:	91 11       	cpse	r25, r1
 12a:	f1 cf       	rjmp	.-30     	; 0x10e <uart_puts+0x10>
 12c:	08 95       	ret

Disassembly of section .text.avrlibc.fplib:

0000070a <__cmpsf2>:
 70a:	00 d4       	rcall	.+2048   	; 0xf0c <__fp_cmp>
 70c:	08 f4       	brcc	.+2      	; 0x710 <__cmpsf2+0x6>
 70e:	81 e0       	ldi	r24, 0x01	; 1
 710:	08 95       	ret

Disassembly of section .text.avrlibc.fplib:

00000706 <__divsf3>:
 706:	9b d3       	rcall	.+1846   	; 0xe3e <__divsf3x>
 708:	27 c3       	rjmp	.+1614   	; 0xd58 <__fp_round>

Disassembly of section .text.avrlibc.fplib:

00000e3e <__divsf3x>:
 e3e:	0b c0       	rjmp	.+22     	; 0xe56 <__divsf3x+0x18>
 e40:	02 d2       	rcall	.+1028   	; 0x1246 <__fp_pscB>
 e42:	40 f0       	brcs	.+16     	; 0xe54 <__divsf3x+0x16>
 e44:	07 d2       	rcall	.+1038   	; 0x1254 <__fp_pscA>
 e46:	30 f0       	brcs	.+12     	; 0xe54 <__divsf3x+0x16>
 e48:	21 f4       	brne	.+8      	; 0xe52 <__divsf3x+0x14>
 e4a:	5f 3f       	cpi	r21, 0xFF	; 255
 e4c:	19 f0       	breq	.+6      	; 0xe54 <__divsf3x+0x16>
 e4e:	f2 c1       	rjmp	.+996    	; 0x1234 <__fp_inf>
 e50:	51 11       	cpse	r21, r1
 e52:	81 c0       	rjmp	.+258    	; 0xf56 <__fp_szero>
 e54:	f5 c1       	rjmp	.+1002   	; 0x1240 <__fp_nan>
 e56:	85 d0       	rcall	.+266    	; 0xf62 <__fp_split3>
 e58:	98 f3       	brcs	.-26     	; 0xe40 <__divsf3x+0x2>

00000e5a <__divsf3_pse>:
 e5a:	99 23       	and	r25, r25
 e5c:	c9 f3       	breq	.-14     	; 0xe50 <__divsf3x+0x12>
 e5e:	55 23       	and	r21, r21
 e60:	b1 f3       	breq	.-20     	; 0xe4e <__divsf3x+0x10>
 e62:	95 1b       	sub	r25, r21
 e64:	55 0b       	sbc	r21, r21
 e66:	bb 27       	eor	r27, r27
 e68:	aa 27       	eor	r26, r26
 e6a:	62 17       	cp	r22, r18
 e6c:	73 07       	cpc	r23, r19
 e6e:	84 07       	cpc	r24, r20
 e70:	38 f0       	brcs	.+14     	; 0xe80 <__divsf3_pse+0x26>
 e72:	9f 5f       	subi	r25, 0xFF	; 255
 e74:	5f 4f       	sbci	r21, 0xFF	; 255
 e76:	22 0f       	add	r18, r18
 e78:	33 1f       	adc	r19, r19
 e7a:	44 1f       	adc	r20, r20
 e7c:	aa 1f       	adc	r26, r26
 e7e:	a9 f3       	breq	.-22     	; 0xe6a <__divsf3_pse+0x10>
 e80:	33 d0       	rcall	.+102    	; 0xee8 <__divsf3_pse+0x8e>
 e82:	0e 2e       	mov	r0, r30
 e84:	3a f0       	brmi	.+14     	; 0xe94 <__divsf3_pse+0x3a>
 e86:	e0 e8       	ldi	r30, 0x80	; 128
 e88:	30 d0       	rcall	.+96     	; 0xeea <__divsf3_pse+0x90>
 e8a:	91 50       	subi	r25, 0x01	; 1
 e8c:	50 40       	sbci	r21, 0x00	; 0
 e8e:	e6 95       	lsr	r30
 e90:	00 1c       	adc	r0, r0
 e92:	ca f7       	brpl	.-14     	; 0xe86 <__divsf3_pse+0x2c>
 e94:	29 d0       	rcall	.+82     	; 0xee8 <__divsf3_pse+0x8e>
 e96:	fe 2f       	mov	r31, r30
 e98:	27 d0       	rcall	.+78     	; 0xee8 <__divsf3_pse+0x8e>
 e9a:	66 0f       	add	r22, r22
 e9c:	77 1f       	adc	r23, r23
 e9e:	88 1f       	adc	r24, r24
 ea0:	bb 1f       	adc	r27, r27
 ea2:	26 17       	cp	r18, r22
 ea4:	37 07       	cpc	r19, r23
 ea6:	48 07       	cpc	r20, r24
 ea8:	ab 07       	cpc	r26, r27
 eaa:	b0 e8       	ldi	r27, 0x80	; 128
 eac:	09 f0       	breq	.+2      	; 0xeb0 <__divsf3_pse+0x56>
 eae:	bb 0b       	sbc	r27, r27
 eb0:	80 2d       	mov	r24, r0
 eb2:	bf 01       	movw	r22, r30
 eb4:	ff 27       	eor	r31, r31
 eb6:	93 58       	subi	r25, 0x83	; 131
 eb8:	5f 4f       	sbci	r21, 0xFF	; 255
 eba:	2a f0       	brmi	.+10     	; 0xec6 <__divsf3_pse+0x6c>
 ebc:	9e 3f       	cpi	r25, 0xFE	; 254
 ebe:	51 05       	cpc	r21, r1
 ec0:	68 f0       	brcs	.+26     	; 0xedc <__divsf3_pse+0x82>
 ec2:	b8 c1       	rjmp	.+880    	; 0x1234 <__fp_inf>
 ec4:	48 c0       	rjmp	.+144    	; 0xf56 <__fp_szero>
 ec6:	5f 3f       	cpi	r21, 0xFF	; 255
 ec8:	ec f3       	brlt	.-6      	; 0xec4 <__divsf3_pse+0x6a>
 eca:	98 3e       	cpi	r25, 0xE8	; 232
 ecc:	dc f3       	brlt	.-10     	; 0xec4 <__divsf3_pse+0x6a>
 ece:	86 95       	lsr	r24
 ed0:	77 95       	ror	r23
 ed2:	67 95       	ror	r22
 ed4:	b7 95       	ror	r27
 ed6:	f7 95       	ror	r31
 ed8:	9f 5f       	subi	r25, 0xFF	; 255
 eda:	c9 f7       	brne	.-14     	; 0xece <__divsf3_pse+0x74>
 edc:	88 0f       	add	r24, r24
 ede:	91 1d       	adc	r25, r1
 ee0:	96 95       	lsr	r25
 ee2:	87 95       	ror	r24
 ee4:	97 f9       	bld	r25, 7
 ee6:	08 95       	ret
 ee8:	e1 e0       	ldi	r30, 0x01	; 1
 eea:	66 0f       	add	r22, r22
 eec:	77 1f       	adc	r23, r23
 eee:	88 1f       	adc	r24, r24
 ef0:	bb 1f       	adc	r27, r27
 ef2:	62 17       	cp	r22, r18
 ef4:	73 07       	cpc	r23, r19
 ef6:	84 07       	cpc	r24, r20
 ef8:	ba 07       	cpc	r27, r26
 efa:	20 f0       	brcs	.+8      	; 0xf04 <__divsf3_pse+0xaa>
 efc:	62 1b       	sub	r22, r18
 efe:	73 0b       	sbc	r23, r19
 f00:	84 0b       	sbc	r24, r20
 f02:	ba 0b       	sbc	r27, r26
 f04:	ee 1f       	adc	r30, r30
 f06:	88 f7       	brcc	.-30     	; 0xeea <__divsf3_pse+0x90>
 f08:	e0 95       	com	r30
 f0a:	08 95       	ret

Disassembly of section .text.avrlibc.fplib:

0000071a <__fixunssfsi>:
 71a:	2b d4       	rcall	.+2134   	; 0xf72 <__fp_splitA>
 71c:	88 f0       	brcs	.+34     	; 0x740 <__fixunssfsi+0x26>
 71e:	9f 57       	subi	r25, 0x7F	; 127
 720:	90 f0       	brcs	.+36     	; 0x746 <__fixunssfsi+0x2c>
 722:	b9 2f       	mov	r27, r25
 724:	99 27       	eor	r25, r25
 726:	b7 51       	subi	r27, 0x17	; 23
 728:	a0 f0       	brcs	.+40     	; 0x752 <__fixunssfsi+0x38>
 72a:	d1 f0       	breq	.+52     	; 0x760 <__fixunssfsi+0x46>
 72c:	66 0f       	add	r22, r22
 72e:	77 1f       	adc	r23, r23
 730:	88 1f       	adc	r24, r24
 732:	99 1f       	adc	r25, r25
 734:	1a f0       	brmi	.+6      	; 0x73c <__fixunssfsi+0x22>
 736:	ba 95       	dec	r27
 738:	c9 f7       	brne	.-14     	; 0x72c <__fixunssfsi+0x12>
 73a:	12 c0       	rjmp	.+36     	; 0x760 <__fixunssfsi+0x46>
 73c:	b1 30       	cpi	r27, 0x01	; 1
 73e:	81 f0       	breq	.+32     	; 0x760 <__fixunssfsi+0x46>
 740:	09 d4       	rcall	.+2066   	; 0xf54 <__fp_zero>
 742:	b1 e0       	ldi	r27, 0x01	; 1
 744:	08 95       	ret
 746:	06 c4       	rjmp	.+2060   	; 0xf54 <__fp_zero>
 748:	67 2f       	mov	r22, r23
 74a:	78 2f       	mov	r23, r24
 74c:	88 27       	eor	r24, r24
 74e:	b8 5f       	subi	r27, 0xF8	; 248
 750:	39 f0       	breq	.+14     	; 0x760 <__fixunssfsi+0x46>
 752:	b9 3f       	cpi	r27, 0xF9	; 249
 754:	cc f3       	brlt	.-14     	; 0x748 <__fixunssfsi+0x2e>
 756:	86 95       	lsr	r24
 758:	77 95       	ror	r23
 75a:	67 95       	ror	r22
 75c:	b3 95       	inc	r27
 75e:	d9 f7       	brne	.-10     	; 0x756 <__fixunssfsi+0x3c>
 760:	3e f4       	brtc	.+14     	; 0x770 <__fixunssfsi+0x56>
 762:	90 95       	com	r25
 764:	80 95       	com	r24
 766:	70 95       	com	r23
 768:	61 95       	neg	r22
 76a:	7f 4f       	sbci	r23, 0xFF	; 255
 76c:	8f 4f       	sbci	r24, 0xFF	; 255
 76e:	9f 4f       	sbci	r25, 0xFF	; 255
 770:	08 95       	ret

Disassembly of section .text.avrlibc.fplib:

00000772 <__floatunsisf>:
 772:	e8 94       	clt
 774:	09 c0       	rjmp	.+18     	; 0x788 <__floatsisf+0x12>

00000776 <__floatsisf>:
 776:	97 fb       	bst	r25, 7
 778:	3e f4       	brtc	.+14     	; 0x788 <__floatsisf+0x12>
 77a:	90 95       	com	r25
 77c:	80 95       	com	r24
 77e:	70 95       	com	r23
 780:	61 95       	neg	r22
 782:	7f 4f       	sbci	r23, 0xFF	; 255
 784:	8f 4f       	sbci	r24, 0xFF	; 255
 786:	9f 4f       	sbci	r25, 0xFF	; 255
 788:	99 23       	and	r25, r25
 78a:	a9 f0       	breq	.+42     	; 0x7b6 <__floatsisf+0x40>
 78c:	f9 2f       	mov	r31, r25
 78e:	96 e9       	ldi	r25, 0x96	; 150
 790:	bb 27       	eor	r27, r27
 792:	93 95       	inc	r25
 794:	f6 95       	lsr	r31
 796:	87 95       	ror	r24
 798:	77 95       	ror	r23
 79a:	67 95       	ror	r22
 79c:	b7 95       	ror	r27
 79e:	f1 11       	cpse	r31, r1
 7a0:	f8 cf       	rjmp	.-16     	; 0x792 <__floatsisf+0x1c>
 7a2:	fa f4       	brpl	.+62     	; 0x7e2 <__floatsisf+0x6c>
 7a4:	bb 0f       	add	r27, r27
 7a6:	11 f4       	brne	.+4      	; 0x7ac <__floatsisf+0x36>
 7a8:	60 ff       	sbrs	r22, 0
 7aa:	1b c0       	rjmp	.+54     	; 0x7e2 <__floatsisf+0x6c>
 7ac:	6f 5f       	subi	r22, 0xFF	; 255
 7ae:	7f 4f       	sbci	r23, 0xFF	; 255
 7b0:	8f 4f       	sbci	r24, 0xFF	; 255
 7b2:	9f 4f       	sbci	r25, 0xFF	; 255
 7b4:	16 c0       	rjmp	.+44     	; 0x7e2 <__floatsisf+0x6c>
 7b6:	88 23       	and	r24, r24
 7b8:	11 f0       	breq	.+4      	; 0x7be <__floatsisf+0x48>
 7ba:	96 e9       	ldi	r25, 0x96	; 150
 7bc:	11 c0       	rjmp	.+34     	; 0x7e0 <__floatsisf+0x6a>
 7be:	77 23       	and	r23, r23
 7c0:	21 f0       	breq	.+8      	; 0x7ca <__floatsisf+0x54>
 7c2:	9e e8       	ldi	r25, 0x8E	; 142
 7c4:	87 2f       	mov	r24, r23
 7c6:	76 2f       	mov	r23, r22
 7c8:	05 c0       	rjmp	.+10     	; 0x7d4 <__floatsisf+0x5e>
 7ca:	66 23       	and	r22, r22
 7cc:	71 f0       	breq	.+28     	; 0x7ea <__floatsisf+0x74>
 7ce:	96 e8       	ldi	r25, 0x86	; 134
 7d0:	86 2f       	mov	r24, r22
 7d2:	70 e0       	ldi	r23, 0x00	; 0
 7d4:	60 e0       	ldi	r22, 0x00	; 0
 7d6:	2a f0       	brmi	.+10     	; 0x7e2 <__floatsisf+0x6c>
 7d8:	9a 95       	dec	r25
 7da:	66 0f       	add	r22, r22
 7dc:	77 1f       	adc	r23, r23
 7de:	88 1f       	adc	r24, r24
 7e0:	da f7       	brpl	.-10     	; 0x7d8 <__floatsisf+0x62>
 7e2:	88 0f       	add	r24, r24
 7e4:	96 95       	lsr	r25
 7e6:	87 95       	ror	r24
 7e8:	97 f9       	bld	r25, 7
 7ea:	08 95       	ret

Disassembly of section .text.avrlibc.fplib:

00000f0c <__fp_cmp>:
 f0c:	99 0f       	add	r25, r25
 f0e:	00 08       	sbc	r0, r0
 f10:	55 0f       	add	r21, r21
 f12:	aa 0b       	sbc	r26, r26
 f14:	e0 e8       	ldi	r30, 0x80	; 128
 f16:	fe ef       	ldi	r31, 0xFE	; 254
 f18:	16 16       	cp	r1, r22
 f1a:	17 06       	cpc	r1, r23
 f1c:	e8 07       	cpc	r30, r24
 f1e:	f9 07       	cpc	r31, r25
 f20:	c0 f0       	brcs	.+48     	; 0xf52 <__fp_cmp+0x46>
 f22:	12 16       	cp	r1, r18
 f24:	13 06       	cpc	r1, r19
 f26:	e4 07       	cpc	r30, r20
 f28:	f5 07       	cpc	r31, r21
 f2a:	98 f0       	brcs	.+38     	; 0xf52 <__fp_cmp+0x46>
 f2c:	62 1b       	sub	r22, r18
 f2e:	73 0b       	sbc	r23, r19
 f30:	84 0b       	sbc	r24, r20
 f32:	95 0b       	sbc	r25, r21
 f34:	39 f4       	brne	.+14     	; 0xf44 <__fp_cmp+0x38>
 f36:	0a 26       	eor	r0, r26
 f38:	61 f0       	breq	.+24     	; 0xf52 <__fp_cmp+0x46>
 f3a:	23 2b       	or	r18, r19
 f3c:	24 2b       	or	r18, r20
 f3e:	25 2b       	or	r18, r21
 f40:	21 f4       	brne	.+8      	; 0xf4a <__fp_cmp+0x3e>
 f42:	08 95       	ret
 f44:	0a 26       	eor	r0, r26
 f46:	09 f4       	brne	.+2      	; 0xf4a <__fp_cmp+0x3e>
 f48:	a1 40       	sbci	r26, 0x01	; 1
 f4a:	a6 95       	lsr	r26
 f4c:	8f ef       	ldi	r24, 0xFF	; 255
 f4e:	81 1d       	adc	r24, r1
 f50:	81 1d       	adc	r24, r1
 f52:	08 95       	ret

Disassembly of section .text.avrlibc.fplib:

00001234 <__fp_inf>:
    1234:	97 f9       	bld	r25, 7
    1236:	9f 67       	ori	r25, 0x7F	; 127
    1238:	80 e8       	ldi	r24, 0x80	; 128
    123a:	70 e0       	ldi	r23, 0x00	; 0
    123c:	60 e0       	ldi	r22, 0x00	; 0
    123e:	08 95       	ret

Disassembly of section .text.avrlibc.fplib:

00001240 <__fp_nan>:
    1240:	9f ef       	ldi	r25, 0xFF	; 255
    1242:	80 ec       	ldi	r24, 0xC0	; 192
    1244:	08 95       	ret

Disassembly of section .text.avrlibc.fplib:

00001254 <__fp_pscA>:
    1254:	00 24       	eor	r0, r0
    1256:	0a 94       	dec	r0
    1258:	16 16       	cp	r1, r22
    125a:	17 06       	cpc	r1, r23
    125c:	18 06       	cpc	r1, r24
    125e:	09 06       	cpc	r0, r25
    1260:	08 95       	ret

Disassembly of section .text.avrlibc.fplib:

00001246 <__fp_pscB>:
    1246:	00 24       	eor	r0, r0
    1248:	0a 94       	dec	r0
    124a:	12 16       	cp	r1, r18
    124c:	13 06       	cpc	r1, r19
    124e:	14 06       	cpc	r1, r20
    1250:	05 06       	cpc	r0, r21
    1252:	08 95       	ret

Disassembly of section .text.avrlibc.fplib:

00000d58 <__fp_round>:
 d58:	09 2e       	mov	r0, r25
 d5a:	03 94       	inc	r0
 d5c:	00 0c       	add	r0, r0
 d5e:	11 f4       	brne	.+4      	; 0xd64 <__fp_round+0xc>
 d60:	88 23       	and	r24, r24
 d62:	52 f0       	brmi	.+20     	; 0xd78 <__fp_round+0x20>
 d64:	bb 0f       	add	r27, r27
 d66:	40 f4       	brcc	.+16     	; 0xd78 <__fp_round+0x20>
 d68:	bf 2b       	or	r27, r31
 d6a:	11 f4       	brne	.+4      	; 0xd70 <__fp_round+0x18>
 d6c:	60 ff       	sbrs	r22, 0
 d6e:	04 c0       	rjmp	.+8      	; 0xd78 <__fp_round+0x20>
 d70:	6f 5f       	subi	r22, 0xFF	; 255
 d72:	7f 4f       	sbci	r23, 0xFF	; 255
 d74:	8f 4f       	sbci	r24, 0xFF	; 255
 d76:	9f 4f       	sbci	r25, 0xFF	; 255
 d78:	08 95       	ret

Disassembly of section .text.avrlibc.fplib:

00000f62 <__fp_split3>:
 f62:	57 fd       	sbrc	r21, 7
 f64:	90 58       	subi	r25, 0x80	; 128
 f66:	44 0f       	add	r20, r20
 f68:	55 1f       	adc	r21, r21
 f6a:	59 f0       	breq	.+22     	; 0xf82 <__fp_splitA+0x10>
 f6c:	5f 3f       	cpi	r21, 0xFF	; 255
 f6e:	71 f0       	breq	.+28     	; 0xf8c <__fp_splitA+0x1a>
 f70:	47 95       	ror	r20

00000f72 <__fp_splitA>:
 f72:	88 0f       	add	r24, r24
 f74:	97 fb       	bst	r25, 7
 f76:	99 1f       	adc	r25, r25
 f78:	61 f0       	breq	.+24     	; 0xf92 <__fp_splitA+0x20>
 f7a:	9f 3f       	cpi	r25, 0xFF	; 255
 f7c:	79 f0       	breq	.+30     	; 0xf9c <__fp_splitA+0x2a>
 f7e:	87 95       	ror	r24
 f80:	08 95       	ret
 f82:	12 16       	cp	r1, r18
 f84:	13 06       	cpc	r1, r19
 f86:	14 06       	cpc	r1, r20
 f88:	55 1f       	adc	r21, r21
 f8a:	f2 cf       	rjmp	.-28     	; 0xf70 <__fp_split3+0xe>
 f8c:	46 95       	lsr	r20
 f8e:	f1 df       	rcall	.-30     	; 0xf72 <__fp_splitA>
 f90:	08 c0       	rjmp	.+16     	; 0xfa2 <__fp_splitA+0x30>
 f92:	16 16       	cp	r1, r22
 f94:	17 06       	cpc	r1, r23
 f96:	18 06       	cpc	r1, r24
 f98:	99 1f       	adc	r25, r25
 f9a:	f1 cf       	rjmp	.-30     	; 0xf7e <__fp_splitA+0xc>
 f9c:	86 95       	lsr	r24
 f9e:	71 05       	cpc	r23, r1
 fa0:	61 05       	cpc	r22, r1
 fa2:	08 94       	sec
 fa4:	08 95       	ret

Disassembly of section .text.avrlibc.fplib:

00000f54 <__fp_zero>:
 f54:	e8 94       	clt

00000f56 <__fp_szero>:
 f56:	bb 27       	eor	r27, r27
 f58:	66 27       	eor	r22, r22
 f5a:	77 27       	eor	r23, r23
 f5c:	cb 01       	movw	r24, r22
 f5e:	97 f9       	bld	r25, 7
 f60:	08 95       	ret

Disassembly of section .text.avrlibc.fplib:

00000712 <__gesf2>:
 712:	fc d3       	rcall	.+2040   	; 0xf0c <__fp_cmp>
 714:	08 f4       	brcc	.+2      	; 0x718 <__gesf2+0x6>
 716:	8f ef       	ldi	r24, 0xFF	; 255
 718:	08 95       	ret

Disassembly of section .text.avrlibc.fplib:

00000702 <__mulsf3>:
 702:	3b d3       	rcall	.+1654   	; 0xd7a <__mulsf3x>
 704:	29 c3       	rjmp	.+1618   	; 0xd58 <__fp_round>

Disassembly of section .text.avrlibc.fplib:

00000d7a <__mulsf3x>:
 d7a:	0a c0       	rjmp	.+20     	; 0xd90 <__mulsf3x+0x16>
 d7c:	6b d2       	rcall	.+1238   	; 0x1254 <__fp_pscA>
 d7e:	28 f0       	brcs	.+10     	; 0xd8a <__mulsf3x+0x10>
 d80:	62 d2       	rcall	.+1220   	; 0x1246 <__fp_pscB>
 d82:	18 f0       	brcs	.+6      	; 0xd8a <__mulsf3x+0x10>
 d84:	95 23       	and	r25, r21
 d86:	09 f0       	breq	.+2      	; 0xd8a <__mulsf3x+0x10>
 d88:	55 c2       	rjmp	.+1194   	; 0x1234 <__fp_inf>
 d8a:	5a c2       	rjmp	.+1204   	; 0x1240 <__fp_nan>
 d8c:	11 24       	eor	r1, r1
 d8e:	e3 c0       	rjmp	.+454    	; 0xf56 <__fp_szero>
 d90:	e8 d0       	rcall	.+464    	; 0xf62 <__fp_split3>
 d92:	a0 f3       	brcs	.-24     	; 0xd7c <__mulsf3x+0x2>

00000d94 <__mulsf3_pse>:
 d94:	95 9f       	mul	r25, r21
 d96:	d1 f3       	breq	.-12     	; 0xd8c <__mulsf3x+0x12>
 d98:	95 0f       	add	r25, r21
 d9a:	50 e0       	ldi	r21, 0x00	; 0
 d9c:	55 1f       	adc	r21, r21
 d9e:	62 9f       	mul	r22, r18
 da0:	f0 01       	movw	r30, r0
 da2:	72 9f       	mul	r23, r18
 da4:	bb 27       	eor	r27, r27
 da6:	f0 0d       	add	r31, r0
 da8:	b1 1d       	adc	r27, r1
 daa:	63 9f       	mul	r22, r19
 dac:	aa 27       	eor	r26, r26
 dae:	f0 0d       	add	r31, r0
 db0:	b1 1d       	adc	r27, r1
 db2:	aa 1f       	adc	r26, r26
 db4:	64 9f       	mul	r22, r20
 db6:	66 27       	eor	r22, r22
 db8:	b0 0d       	add	r27, r0
 dba:	a1 1d       	adc	r26, r1
 dbc:	66 1f       	adc	r22, r22
 dbe:	82 9f       	mul	r24, r18
 dc0:	22 27       	eor	r18, r18
 dc2:	b0 0d       	add	r27, r0
 dc4:	a1 1d       	adc	r26, r1
 dc6:	62 1f       	adc	r22, r18
 dc8:	73 9f       	mul	r23, r19
 dca:	b0 0d       	add	r27, r0
 dcc:	a1 1d       	adc	r26, r1
 dce:	62 1f       	adc	r22, r18
 dd0:	83 9f       	mul	r24, r19
 dd2:	a0 0d       	add	r26, r0
 dd4:	61 1d       	adc	r22, r1
 dd6:	22 1f       	adc	r18, r18
 dd8:	74 9f       	mul	r23, r20
 dda:	33 27       	eor	r19, r19
 ddc:	a0 0d       	add	r26, r0
 dde:	61 1d       	adc	r22, r1
 de0:	23 1f       	adc	r18, r19
 de2:	84 9f       	mul	r24, r20
 de4:	60 0d       	add	r22, r0
 de6:	21 1d       	adc	r18, r1
 de8:	82 2f       	mov	r24, r18
 dea:	76 2f       	mov	r23, r22
 dec:	6a 2f       	mov	r22, r26
 dee:	11 24       	eor	r1, r1
 df0:	9f 57       	subi	r25, 0x7F	; 127
 df2:	50 40       	sbci	r21, 0x00	; 0
 df4:	8a f0       	brmi	.+34     	; 0xe18 <__mulsf3_pse+0x84>
 df6:	e1 f0       	breq	.+56     	; 0xe30 <__mulsf3_pse+0x9c>
 df8:	88 23       	and	r24, r24
 dfa:	4a f0       	brmi	.+18     	; 0xe0e <__mulsf3_pse+0x7a>
 dfc:	ee 0f       	add	r30, r30
 dfe:	ff 1f       	adc	r31, r31
 e00:	bb 1f       	adc	r27, r27
 e02:	66 1f       	adc	r22, r22
 e04:	77 1f       	adc	r23, r23
 e06:	88 1f       	adc	r24, r24
 e08:	91 50       	subi	r25, 0x01	; 1
 e0a:	50 40       	sbci	r21, 0x00	; 0
 e0c:	a9 f7       	brne	.-22     	; 0xdf8 <__mulsf3_pse+0x64>
 e0e:	9e 3f       	cpi	r25, 0xFE	; 254
 e10:	51 05       	cpc	r21, r1
 e12:	70 f0       	brcs	.+28     	; 0xe30 <__mulsf3_pse+0x9c>
 e14:	0f c2       	rjmp	.+1054   	; 0x1234 <__fp_inf>
 e16:	9f c0       	rjmp	.+318    	; 0xf56 <__fp_szero>
 e18:	5f 3f       	cpi	r21, 0xFF	; 255
 e1a:	ec f3       	brlt	.-6      	; 0xe16 <__mulsf3_pse+0x82>
 e1c:	98 3e       	cpi	r25, 0xE8	; 232
 e1e:	dc f3       	brlt	.-10     	; 0xe16 <__mulsf3_pse+0x82>
 e20:	86 95       	lsr	r24
 e22:	77 95       	ror	r23
 e24:	67 95       	ror	r22
 e26:	b7 95       	ror	r27
 e28:	f7 95       	ror	r31
 e2a:	e7 95       	ror	r30
 e2c:	9f 5f       	subi	r25, 0xFF	; 255
 e2e:	c1 f7       	brne	.-16     	; 0xe20 <__mulsf3_pse+0x8c>
 e30:	fe 2b       	or	r31, r30
 e32:	88 0f       	add	r24, r24
 e34:	91 1d       	adc	r25, r1
 e36:	96 95       	lsr	r25
 e38:	87 95       	ror	r24
 e3a:	97 f9       	bld	r25, 7
 e3c:	08 95       	ret

Disassembly of section .text.libgcc.div:

00000cdc <__divmodhi4>:
 cdc:	97 fb       	bst	r25, 7
 cde:	07 2e       	mov	r0, r23
 ce0:	16 f4       	brtc	.+4      	; 0xce6 <__divmodhi4+0xa>
 ce2:	00 94       	com	r0
 ce4:	06 d0       	rcall	.+12     	; 0xcf2 <__divmodhi4_neg1>
 ce6:	77 fd       	sbrc	r23, 7
 ce8:	08 d0       	rcall	.+16     	; 0xcfa <__divmodhi4_neg2>
 cea:	90 d2       	rcall	.+1312   	; 0x120c <__udivmodhi4>
 cec:	07 fc       	sbrc	r0, 7
 cee:	05 d0       	rcall	.+10     	; 0xcfa <__divmodhi4_neg2>
 cf0:	3e f4       	brtc	.+14     	; 0xd00 <__divmodhi4_exit>

00000cf2 <__divmodhi4_neg1>:
 cf2:	90 95       	com	r25
 cf4:	81 95       	neg	r24
 cf6:	9f 4f       	sbci	r25, 0xFF	; 255
 cf8:	08 95       	ret

00000cfa <__divmodhi4_neg2>:
 cfa:	70 95       	com	r23
 cfc:	61 95       	neg	r22
 cfe:	7f 4f       	sbci	r23, 0xFF	; 255

00000d00 <__divmodhi4_exit>:
 d00:	08 95       	ret

Disassembly of section .text.libgcc.div:

00001262 <__udivmodsi4>:
    1262:	a1 e2       	ldi	r26, 0x21	; 33
    1264:	1a 2e       	mov	r1, r26
    1266:	aa 1b       	sub	r26, r26
    1268:	bb 1b       	sub	r27, r27
    126a:	fd 01       	movw	r30, r26
    126c:	0d c0       	rjmp	.+26     	; 0x1288 <__udivmodsi4_ep>

0000126e <__udivmodsi4_loop>:
    126e:	aa 1f       	adc	r26, r26
    1270:	bb 1f       	adc	r27, r27
    1272:	ee 1f       	adc	r30, r30
    1274:	ff 1f       	adc	r31, r31
    1276:	a2 17       	cp	r26, r18
    1278:	b3 07       	cpc	r27, r19
    127a:	e4 07       	cpc	r30, r20
    127c:	f5 07       	cpc	r31, r21
    127e:	20 f0       	brcs	.+8      	; 0x1288 <__udivmodsi4_ep>
    1280:	a2 1b       	sub	r26, r18
    1282:	b3 0b       	sbc	r27, r19
    1284:	e4 0b       	sbc	r30, r20
    1286:	f5 0b       	sbc	r31, r21

00001288 <__udivmodsi4_ep>:
    1288:	66 1f       	adc	r22, r22
    128a:	77 1f       	adc	r23, r23
    128c:	88 1f       	adc	r24, r24
    128e:	99 1f       	adc	r25, r25
    1290:	1a 94       	dec	r1
    1292:	69 f7       	brne	.-38     	; 0x126e <__udivmodsi4_loop>
    1294:	60 95       	com	r22
    1296:	70 95       	com	r23
    1298:	80 95       	com	r24
    129a:	90 95       	com	r25
    129c:	9b 01       	movw	r18, r22
    129e:	ac 01       	movw	r20, r24
    12a0:	bd 01       	movw	r22, r26
    12a2:	cf 01       	movw	r24, r30
    12a4:	08 95       	ret

Disassembly of section .text.libgcc.div:

0000120c <__udivmodhi4>:
    120c:	aa 1b       	sub	r26, r26
    120e:	bb 1b       	sub	r27, r27
    1210:	51 e1       	ldi	r21, 0x11	; 17
    1212:	07 c0       	rjmp	.+14     	; 0x1222 <__udivmodhi4_ep>

00001214 <__udivmodhi4_loop>:
    1214:	aa 1f       	adc	r26, r26
    1216:	bb 1f       	adc	r27, r27
    1218:	a6 17       	cp	r26, r22
    121a:	b7 07       	cpc	r27, r23
    121c:	10 f0       	brcs	.+4      	; 0x1222 <__udivmodhi4_ep>
    121e:	a6 1b       	sub	r26, r22
    1220:	b7 0b       	sbc	r27, r23

00001222 <__udivmodhi4_ep>:
    1222:	88 1f       	adc	r24, r24
    1224:	99 1f       	adc	r25, r25
    1226:	5a 95       	dec	r21
    1228:	a9 f7       	brne	.-22     	; 0x1214 <__udivmodhi4_loop>
    122a:	80 95       	com	r24
    122c:	90 95       	com	r25
    122e:	bc 01       	movw	r22, r24
    1230:	cd 01       	movw	r24, r26
    1232:	08 95       	ret

Disassembly of section .text.avrlibc:

00000498 <sprintf>:
 498:	af e0       	ldi	r26, 0x0F	; 15
 49a:	b0 e0       	ldi	r27, 0x00	; 0
 49c:	e1 e5       	ldi	r30, 0x51	; 81
 49e:	f2 e0       	ldi	r31, 0x02	; 2
 4a0:	e5 c3       	rjmp	.+1994   	; 0xc6c <__prologue_saves__+0x1c>
 4a2:	0e 89       	ldd	r16, Y+22	; 0x16
 4a4:	1f 89       	ldd	r17, Y+23	; 0x17
 4a6:	86 e0       	ldi	r24, 0x06	; 6
 4a8:	8d 83       	std	Y+5, r24	; 0x05
 4aa:	1a 83       	std	Y+2, r17	; 0x02
 4ac:	09 83       	std	Y+1, r16	; 0x01
 4ae:	8f ef       	ldi	r24, 0xFF	; 255
 4b0:	9f e7       	ldi	r25, 0x7F	; 127
 4b2:	9f 83       	std	Y+7, r25	; 0x07
 4b4:	8e 83       	std	Y+6, r24	; 0x06
 4b6:	9e 01       	movw	r18, r28
 4b8:	25 5e       	subi	r18, 0xE5	; 229
 4ba:	3f 4f       	sbci	r19, 0xFF	; 255
 4bc:	48 8d       	ldd	r20, Y+24	; 0x18
 4be:	59 8d       	ldd	r21, Y+25	; 0x19
 4c0:	6a 8d       	ldd	r22, Y+26	; 0x1a
 4c2:	ce 01       	movw	r24, r28
 4c4:	01 96       	adiw	r24, 0x01	; 1
 4c6:	92 d1       	rcall	.+804    	; 0x7ec <vfprintf>
 4c8:	e8 85       	ldd	r30, Y+8	; 0x08
 4ca:	f9 85       	ldd	r31, Y+9	; 0x09
 4cc:	e0 0f       	add	r30, r16
 4ce:	f1 1f       	adc	r31, r17
 4d0:	10 82       	st	Z, r1
 4d2:	2f 96       	adiw	r28, 0x0f	; 15
 4d4:	e4 e0       	ldi	r30, 0x04	; 4
 4d6:	af c3       	rjmp	.+1886   	; 0xc36 <__epilogue_restores__+0x1c>

Disassembly of section .text.avrlibc:

000007ec <vfprintf>:
 7ec:	2f 92       	push	r2
 7ee:	3f 92       	push	r3
 7f0:	4f 92       	push	r4
 7f2:	6f 92       	push	r6
 7f4:	7f 92       	push	r7
 7f6:	8f 92       	push	r8
 7f8:	9f 92       	push	r9
 7fa:	af 92       	push	r10
 7fc:	bf 92       	push	r11
 7fe:	cf 92       	push	r12
 800:	df 92       	push	r13
 802:	ef 92       	push	r14
 804:	ff 92       	push	r15
 806:	0f 93       	push	r16
 808:	1f 93       	push	r17
 80a:	cf 93       	push	r28
 80c:	df 93       	push	r29
 80e:	cd b7       	in	r28, 0x3d	; 61
 810:	de b7       	in	r29, 0x3e	; 62
 812:	62 97       	sbiw	r28, 0x12	; 18
 814:	0f b6       	in	r0, 0x3f	; 63
 816:	f8 94       	cli
 818:	de bf       	out	0x3e, r29	; 62
 81a:	0f be       	out	0x3f, r0	; 63
 81c:	cd bf       	out	0x3d, r28	; 61
 81e:	6c 01       	movw	r12, r24
 820:	3a 01       	movw	r6, r20
 822:	86 2e       	mov	r8, r22
 824:	79 01       	movw	r14, r18
 826:	fc 01       	movw	r30, r24
 828:	10 86       	std	Z+8, r1	; 0x08
 82a:	17 82       	std	Z+7, r1	; 0x07
 82c:	84 81       	ldd	r24, Z+4	; 0x04
 82e:	81 ff       	sbrs	r24, 1
 830:	da c1       	rjmp	.+948    	; 0xbe6 <__stack+0x2e7>
 832:	9e 01       	movw	r18, r28
 834:	2f 5f       	subi	r18, 0xFF	; 255
 836:	3f 4f       	sbci	r19, 0xFF	; 255
 838:	3d 87       	std	Y+13, r19	; 0x0d
 83a:	2c 87       	std	Y+12, r18	; 0x0c
 83c:	c9 01       	movw	r24, r18
 83e:	a0 e8       	ldi	r26, 0x80	; 128
 840:	88 8b       	std	Y+16, r24	; 0x10
 842:	99 8b       	std	Y+17, r25	; 0x11
 844:	aa 8b       	std	Y+18, r26	; 0x12
 846:	9f e3       	ldi	r25, 0x3F	; 63
 848:	99 2e       	mov	r9, r25
 84a:	f3 01       	movw	r30, r6
 84c:	84 91       	lpm	r24, Z
 84e:	87 fc       	sbrc	r8, 7
 850:	80 81       	ld	r24, Z
 852:	88 23       	and	r24, r24
 854:	09 f4       	brne	.+2      	; 0x858 <__DATA_REGION_LENGTH__+0x58>
 856:	c3 c1       	rjmp	.+902    	; 0xbde <__stack+0x2df>
 858:	48 2d       	mov	r20, r8
 85a:	93 01       	movw	r18, r6
 85c:	2f 5f       	subi	r18, 0xFF	; 255
 85e:	3f 4f       	sbci	r19, 0xFF	; 255
 860:	4f 4f       	sbci	r20, 0xFF	; 255
 862:	85 32       	cpi	r24, 0x25	; 37
 864:	19 f0       	breq	.+6      	; 0x86c <__DATA_REGION_LENGTH__+0x6c>
 866:	39 01       	movw	r6, r18
 868:	84 2e       	mov	r8, r20
 86a:	0a c0       	rjmp	.+20     	; 0x880 <__DATA_REGION_LENGTH__+0x80>
 86c:	f9 01       	movw	r30, r18
 86e:	84 91       	lpm	r24, Z
 870:	47 fd       	sbrc	r20, 7
 872:	80 81       	ld	r24, Z
 874:	92 e0       	ldi	r25, 0x02	; 2
 876:	69 0e       	add	r6, r25
 878:	71 1c       	adc	r7, r1
 87a:	81 1c       	adc	r8, r1
 87c:	85 32       	cpi	r24, 0x25	; 37
 87e:	21 f4       	brne	.+8      	; 0x888 <__DATA_REGION_LENGTH__+0x88>
 880:	b6 01       	movw	r22, r12
 882:	90 e0       	ldi	r25, 0x00	; 0
 884:	90 d3       	rcall	.+1824   	; 0xfa6 <fputc>
 886:	e1 cf       	rjmp	.-62     	; 0x84a <__DATA_REGION_LENGTH__+0x4a>
 888:	b1 2c       	mov	r11, r1
 88a:	00 e0       	ldi	r16, 0x00	; 0
 88c:	10 e0       	ldi	r17, 0x00	; 0
 88e:	10 32       	cpi	r17, 0x20	; 32
 890:	a0 f4       	brcc	.+40     	; 0x8ba <__DATA_REGION_LENGTH__+0xba>
 892:	8b 32       	cpi	r24, 0x2B	; 43
 894:	69 f0       	breq	.+26     	; 0x8b0 <__DATA_REGION_LENGTH__+0xb0>
 896:	30 f4       	brcc	.+12     	; 0x8a4 <__DATA_REGION_LENGTH__+0xa4>
 898:	80 32       	cpi	r24, 0x20	; 32
 89a:	59 f0       	breq	.+22     	; 0x8b2 <__DATA_REGION_LENGTH__+0xb2>
 89c:	83 32       	cpi	r24, 0x23	; 35
 89e:	69 f4       	brne	.+26     	; 0x8ba <__DATA_REGION_LENGTH__+0xba>
 8a0:	10 61       	ori	r17, 0x10	; 16
 8a2:	2c c0       	rjmp	.+88     	; 0x8fc <__DATA_REGION_LENGTH__+0xfc>
 8a4:	8d 32       	cpi	r24, 0x2D	; 45
 8a6:	39 f0       	breq	.+14     	; 0x8b6 <__DATA_REGION_LENGTH__+0xb6>
 8a8:	80 33       	cpi	r24, 0x30	; 48
 8aa:	39 f4       	brne	.+14     	; 0x8ba <__DATA_REGION_LENGTH__+0xba>
 8ac:	11 60       	ori	r17, 0x01	; 1
 8ae:	26 c0       	rjmp	.+76     	; 0x8fc <__DATA_REGION_LENGTH__+0xfc>
 8b0:	12 60       	ori	r17, 0x02	; 2
 8b2:	14 60       	ori	r17, 0x04	; 4
 8b4:	23 c0       	rjmp	.+70     	; 0x8fc <__DATA_REGION_LENGTH__+0xfc>
 8b6:	18 60       	ori	r17, 0x08	; 8
 8b8:	21 c0       	rjmp	.+66     	; 0x8fc <__DATA_REGION_LENGTH__+0xfc>
 8ba:	17 fd       	sbrc	r17, 7
 8bc:	29 c0       	rjmp	.+82     	; 0x910 <__stack+0x11>
 8be:	90 ed       	ldi	r25, 0xD0	; 208
 8c0:	98 0f       	add	r25, r24
 8c2:	9a 30       	cpi	r25, 0x0A	; 10
 8c4:	78 f4       	brcc	.+30     	; 0x8e4 <__DATA_REGION_LENGTH__+0xe4>
 8c6:	16 ff       	sbrs	r17, 6
 8c8:	06 c0       	rjmp	.+12     	; 0x8d6 <__DATA_REGION_LENGTH__+0xd6>
 8ca:	aa e0       	ldi	r26, 0x0A	; 10
 8cc:	ba 9e       	mul	r11, r26
 8ce:	90 0d       	add	r25, r0
 8d0:	11 24       	eor	r1, r1
 8d2:	b9 2e       	mov	r11, r25
 8d4:	13 c0       	rjmp	.+38     	; 0x8fc <__DATA_REGION_LENGTH__+0xfc>
 8d6:	ea e0       	ldi	r30, 0x0A	; 10
 8d8:	0e 9f       	mul	r16, r30
 8da:	90 0d       	add	r25, r0
 8dc:	11 24       	eor	r1, r1
 8de:	09 2f       	mov	r16, r25
 8e0:	10 62       	ori	r17, 0x20	; 32
 8e2:	0c c0       	rjmp	.+24     	; 0x8fc <__DATA_REGION_LENGTH__+0xfc>
 8e4:	8e 32       	cpi	r24, 0x2E	; 46
 8e6:	21 f4       	brne	.+8      	; 0x8f0 <__DATA_REGION_LENGTH__+0xf0>
 8e8:	16 fd       	sbrc	r17, 6
 8ea:	79 c1       	rjmp	.+754    	; 0xbde <__stack+0x2df>
 8ec:	10 64       	ori	r17, 0x40	; 64
 8ee:	06 c0       	rjmp	.+12     	; 0x8fc <__DATA_REGION_LENGTH__+0xfc>
 8f0:	8c 36       	cpi	r24, 0x6C	; 108
 8f2:	11 f4       	brne	.+4      	; 0x8f8 <__DATA_REGION_LENGTH__+0xf8>
 8f4:	10 68       	ori	r17, 0x80	; 128
 8f6:	02 c0       	rjmp	.+4      	; 0x8fc <__DATA_REGION_LENGTH__+0xfc>
 8f8:	88 36       	cpi	r24, 0x68	; 104
 8fa:	51 f4       	brne	.+20     	; 0x910 <__stack+0x11>
 8fc:	f3 01       	movw	r30, r6
 8fe:	84 91       	lpm	r24, Z
 900:	87 fc       	sbrc	r8, 7
 902:	80 81       	ld	r24, Z
 904:	ff ef       	ldi	r31, 0xFF	; 255
 906:	6f 1a       	sub	r6, r31
 908:	7f 0a       	sbc	r7, r31
 90a:	8f 0a       	sbc	r8, r31
 90c:	81 11       	cpse	r24, r1
 90e:	bf cf       	rjmp	.-130    	; 0x88e <__DATA_REGION_LENGTH__+0x8e>
 910:	98 2f       	mov	r25, r24
 912:	9f 7d       	andi	r25, 0xDF	; 223
 914:	95 54       	subi	r25, 0x45	; 69
 916:	93 30       	cpi	r25, 0x03	; 3
 918:	28 f4       	brcc	.+10     	; 0x924 <__stack+0x25>
 91a:	24 e0       	ldi	r18, 0x04	; 4
 91c:	e2 0e       	add	r14, r18
 91e:	f1 1c       	adc	r15, r1
 920:	99 82       	std	Y+1, r9	; 0x01
 922:	0f c0       	rjmp	.+30     	; 0x942 <__stack+0x43>
 924:	83 36       	cpi	r24, 0x63	; 99
 926:	31 f0       	breq	.+12     	; 0x934 <__stack+0x35>
 928:	83 37       	cpi	r24, 0x73	; 115
 92a:	91 f0       	breq	.+36     	; 0x950 <__stack+0x51>
 92c:	83 35       	cpi	r24, 0x53	; 83
 92e:	09 f0       	breq	.+2      	; 0x932 <__stack+0x33>
 930:	5f c0       	rjmp	.+190    	; 0x9f0 <__stack+0xf1>
 932:	26 c0       	rjmp	.+76     	; 0x980 <__stack+0x81>
 934:	f7 01       	movw	r30, r14
 936:	80 81       	ld	r24, Z
 938:	89 83       	std	Y+1, r24	; 0x01
 93a:	97 01       	movw	r18, r14
 93c:	2e 5f       	subi	r18, 0xFE	; 254
 93e:	3f 4f       	sbci	r19, 0xFF	; 255
 940:	79 01       	movw	r14, r18
 942:	28 88       	ldd	r2, Y+16	; 0x10
 944:	39 88       	ldd	r3, Y+17	; 0x11
 946:	4a 88       	ldd	r4, Y+18	; 0x12
 948:	aa 24       	eor	r10, r10
 94a:	a3 94       	inc	r10
 94c:	b1 2c       	mov	r11, r1
 94e:	16 c0       	rjmp	.+44     	; 0x97c <__stack+0x7d>
 950:	a7 01       	movw	r20, r14
 952:	4d 5f       	subi	r20, 0xFD	; 253
 954:	5f 4f       	sbci	r21, 0xFF	; 255
 956:	5f 87       	std	Y+15, r21	; 0x0f
 958:	4e 87       	std	Y+14, r20	; 0x0e
 95a:	f7 01       	movw	r30, r14
 95c:	20 80       	ld	r2, Z
 95e:	31 80       	ldd	r3, Z+1	; 0x01
 960:	42 80       	ldd	r4, Z+2	; 0x02
 962:	16 ff       	sbrs	r17, 6
 964:	03 c0       	rjmp	.+6      	; 0x96c <__stack+0x6d>
 966:	4b 2d       	mov	r20, r11
 968:	50 e0       	ldi	r21, 0x00	; 0
 96a:	02 c0       	rjmp	.+4      	; 0x970 <__stack+0x71>
 96c:	4f ef       	ldi	r20, 0xFF	; 255
 96e:	5f ef       	ldi	r21, 0xFF	; 255
 970:	84 2d       	mov	r24, r4
 972:	b1 01       	movw	r22, r2
 974:	b2 d3       	rcall	.+1892   	; 0x10da <strnlen>
 976:	5c 01       	movw	r10, r24
 978:	ee 84       	ldd	r14, Y+14	; 0x0e
 97a:	ff 84       	ldd	r15, Y+15	; 0x0f
 97c:	1f 77       	andi	r17, 0x7F	; 127
 97e:	17 c0       	rjmp	.+46     	; 0x9ae <__stack+0xaf>
 980:	97 01       	movw	r18, r14
 982:	2d 5f       	subi	r18, 0xFD	; 253
 984:	3f 4f       	sbci	r19, 0xFF	; 255
 986:	3f 87       	std	Y+15, r19	; 0x0f
 988:	2e 87       	std	Y+14, r18	; 0x0e
 98a:	f7 01       	movw	r30, r14
 98c:	20 80       	ld	r2, Z
 98e:	31 80       	ldd	r3, Z+1	; 0x01
 990:	42 80       	ldd	r4, Z+2	; 0x02
 992:	16 ff       	sbrs	r17, 6
 994:	03 c0       	rjmp	.+6      	; 0x99c <__stack+0x9d>
 996:	4b 2d       	mov	r20, r11
 998:	50 e0       	ldi	r21, 0x00	; 0
 99a:	02 c0       	rjmp	.+4      	; 0x9a0 <__stack+0xa1>
 99c:	4f ef       	ldi	r20, 0xFF	; 255
 99e:	5f ef       	ldi	r21, 0xFF	; 255
 9a0:	84 2d       	mov	r24, r4
 9a2:	b1 01       	movw	r22, r2
 9a4:	9a d3       	rcall	.+1844   	; 0x10da <strnlen>
 9a6:	5c 01       	movw	r10, r24
 9a8:	10 68       	ori	r17, 0x80	; 128
 9aa:	ee 84       	ldd	r14, Y+14	; 0x0e
 9ac:	ff 84       	ldd	r15, Y+15	; 0x0f
 9ae:	13 fd       	sbrc	r17, 3
 9b0:	1b c0       	rjmp	.+54     	; 0x9e8 <__stack+0xe9>
 9b2:	80 2f       	mov	r24, r16
 9b4:	90 e0       	ldi	r25, 0x00	; 0
 9b6:	a8 16       	cp	r10, r24
 9b8:	b9 06       	cpc	r11, r25
 9ba:	b0 f4       	brcc	.+44     	; 0x9e8 <__stack+0xe9>
 9bc:	b6 01       	movw	r22, r12
 9be:	80 e2       	ldi	r24, 0x20	; 32
 9c0:	90 e0       	ldi	r25, 0x00	; 0
 9c2:	f1 d2       	rcall	.+1506   	; 0xfa6 <fputc>
 9c4:	01 50       	subi	r16, 0x01	; 1
 9c6:	f5 cf       	rjmp	.-22     	; 0x9b2 <__stack+0xb3>
 9c8:	f1 01       	movw	r30, r2
 9ca:	84 91       	lpm	r24, Z
 9cc:	47 fc       	sbrc	r4, 7
 9ce:	80 81       	ld	r24, Z
 9d0:	ff ef       	ldi	r31, 0xFF	; 255
 9d2:	2f 1a       	sub	r2, r31
 9d4:	3f 0a       	sbc	r3, r31
 9d6:	4f 0a       	sbc	r4, r31
 9d8:	b6 01       	movw	r22, r12
 9da:	90 e0       	ldi	r25, 0x00	; 0
 9dc:	e4 d2       	rcall	.+1480   	; 0xfa6 <fputc>
 9de:	01 11       	cpse	r16, r1
 9e0:	01 50       	subi	r16, 0x01	; 1
 9e2:	21 e0       	ldi	r18, 0x01	; 1
 9e4:	a2 1a       	sub	r10, r18
 9e6:	b1 08       	sbc	r11, r1
 9e8:	a1 14       	cp	r10, r1
 9ea:	b1 04       	cpc	r11, r1
 9ec:	69 f7       	brne	.-38     	; 0x9c8 <__stack+0xc9>
 9ee:	ee c0       	rjmp	.+476    	; 0xbcc <__stack+0x2cd>
 9f0:	84 36       	cpi	r24, 0x64	; 100
 9f2:	11 f0       	breq	.+4      	; 0x9f8 <__stack+0xf9>
 9f4:	89 36       	cpi	r24, 0x69	; 105
 9f6:	69 f5       	brne	.+90     	; 0xa52 <__stack+0x153>
 9f8:	f7 01       	movw	r30, r14
 9fa:	17 ff       	sbrs	r17, 7
 9fc:	08 c0       	rjmp	.+16     	; 0xa0e <__stack+0x10f>
 9fe:	60 81       	ld	r22, Z
 a00:	71 81       	ldd	r23, Z+1	; 0x01
 a02:	82 81       	ldd	r24, Z+2	; 0x02
 a04:	93 81       	ldd	r25, Z+3	; 0x03
 a06:	97 01       	movw	r18, r14
 a08:	2c 5f       	subi	r18, 0xFC	; 252
 a0a:	3f 4f       	sbci	r19, 0xFF	; 255
 a0c:	09 c0       	rjmp	.+18     	; 0xa20 <__stack+0x121>
 a0e:	60 81       	ld	r22, Z
 a10:	71 81       	ldd	r23, Z+1	; 0x01
 a12:	07 2e       	mov	r0, r23
 a14:	00 0c       	add	r0, r0
 a16:	88 0b       	sbc	r24, r24
 a18:	99 0b       	sbc	r25, r25
 a1a:	97 01       	movw	r18, r14
 a1c:	2e 5f       	subi	r18, 0xFE	; 254
 a1e:	3f 4f       	sbci	r19, 0xFF	; 255
 a20:	79 01       	movw	r14, r18
 a22:	1f 76       	andi	r17, 0x6F	; 111
 a24:	31 2e       	mov	r3, r17
 a26:	97 ff       	sbrs	r25, 7
 a28:	0a c0       	rjmp	.+20     	; 0xa3e <__stack+0x13f>
 a2a:	90 95       	com	r25
 a2c:	80 95       	com	r24
 a2e:	70 95       	com	r23
 a30:	61 95       	neg	r22
 a32:	7f 4f       	sbci	r23, 0xFF	; 255
 a34:	8f 4f       	sbci	r24, 0xFF	; 255
 a36:	9f 4f       	sbci	r25, 0xFF	; 255
 a38:	31 2f       	mov	r19, r17
 a3a:	30 68       	ori	r19, 0x80	; 128
 a3c:	33 2e       	mov	r3, r19
 a3e:	2a e0       	ldi	r18, 0x0A	; 10
 a40:	30 e0       	ldi	r19, 0x00	; 0
 a42:	ae 01       	movw	r20, r28
 a44:	4f 5f       	subi	r20, 0xFF	; 255
 a46:	5f 4f       	sbci	r21, 0xFF	; 255
 a48:	ea d2       	rcall	.+1492   	; 0x101e <__ultoa_invert>
 a4a:	48 2e       	mov	r4, r24
 a4c:	4c 85       	ldd	r20, Y+12	; 0x0c
 a4e:	44 1a       	sub	r4, r20
 a50:	49 c0       	rjmp	.+146    	; 0xae4 <__stack+0x1e5>
 a52:	85 37       	cpi	r24, 0x75	; 117
 a54:	29 f4       	brne	.+10     	; 0xa60 <__stack+0x161>
 a56:	1f 7e       	andi	r17, 0xEF	; 239
 a58:	a1 2e       	mov	r10, r17
 a5a:	2a e0       	ldi	r18, 0x0A	; 10
 a5c:	30 e0       	ldi	r19, 0x00	; 0
 a5e:	25 c0       	rjmp	.+74     	; 0xaaa <__stack+0x1ab>
 a60:	51 2f       	mov	r21, r17
 a62:	59 7f       	andi	r21, 0xF9	; 249
 a64:	a5 2e       	mov	r10, r21
 a66:	8f 36       	cpi	r24, 0x6F	; 111
 a68:	c1 f0       	breq	.+48     	; 0xa9a <__stack+0x19b>
 a6a:	18 f4       	brcc	.+6      	; 0xa72 <__stack+0x173>
 a6c:	88 35       	cpi	r24, 0x58	; 88
 a6e:	79 f0       	breq	.+30     	; 0xa8e <__stack+0x18f>
 a70:	b6 c0       	rjmp	.+364    	; 0xbde <__stack+0x2df>
 a72:	80 37       	cpi	r24, 0x70	; 112
 a74:	19 f0       	breq	.+6      	; 0xa7c <__stack+0x17d>
 a76:	88 37       	cpi	r24, 0x78	; 120
 a78:	21 f0       	breq	.+8      	; 0xa82 <__stack+0x183>
 a7a:	b1 c0       	rjmp	.+354    	; 0xbde <__stack+0x2df>
 a7c:	85 2f       	mov	r24, r21
 a7e:	80 61       	ori	r24, 0x10	; 16
 a80:	a8 2e       	mov	r10, r24
 a82:	a4 fe       	sbrs	r10, 4
 a84:	0d c0       	rjmp	.+26     	; 0xaa0 <__stack+0x1a1>
 a86:	9a 2d       	mov	r25, r10
 a88:	94 60       	ori	r25, 0x04	; 4
 a8a:	a9 2e       	mov	r10, r25
 a8c:	09 c0       	rjmp	.+18     	; 0xaa0 <__stack+0x1a1>
 a8e:	14 ff       	sbrs	r17, 4
 a90:	0a c0       	rjmp	.+20     	; 0xaa6 <__stack+0x1a7>
 a92:	a5 2f       	mov	r26, r21
 a94:	a6 60       	ori	r26, 0x06	; 6
 a96:	aa 2e       	mov	r10, r26
 a98:	06 c0       	rjmp	.+12     	; 0xaa6 <__stack+0x1a7>
 a9a:	28 e0       	ldi	r18, 0x08	; 8
 a9c:	30 e0       	ldi	r19, 0x00	; 0
 a9e:	05 c0       	rjmp	.+10     	; 0xaaa <__stack+0x1ab>
 aa0:	20 e1       	ldi	r18, 0x10	; 16
 aa2:	30 e0       	ldi	r19, 0x00	; 0
 aa4:	02 c0       	rjmp	.+4      	; 0xaaa <__stack+0x1ab>
 aa6:	20 e1       	ldi	r18, 0x10	; 16
 aa8:	32 e0       	ldi	r19, 0x02	; 2
 aaa:	f7 01       	movw	r30, r14
 aac:	a7 fe       	sbrs	r10, 7
 aae:	08 c0       	rjmp	.+16     	; 0xac0 <__stack+0x1c1>
 ab0:	60 81       	ld	r22, Z
 ab2:	71 81       	ldd	r23, Z+1	; 0x01
 ab4:	82 81       	ldd	r24, Z+2	; 0x02
 ab6:	93 81       	ldd	r25, Z+3	; 0x03
 ab8:	a7 01       	movw	r20, r14
 aba:	4c 5f       	subi	r20, 0xFC	; 252
 abc:	5f 4f       	sbci	r21, 0xFF	; 255
 abe:	07 c0       	rjmp	.+14     	; 0xace <__stack+0x1cf>
 ac0:	60 81       	ld	r22, Z
 ac2:	71 81       	ldd	r23, Z+1	; 0x01
 ac4:	80 e0       	ldi	r24, 0x00	; 0
 ac6:	90 e0       	ldi	r25, 0x00	; 0
 ac8:	a7 01       	movw	r20, r14
 aca:	4e 5f       	subi	r20, 0xFE	; 254
 acc:	5f 4f       	sbci	r21, 0xFF	; 255
 ace:	7a 01       	movw	r14, r20
 ad0:	ae 01       	movw	r20, r28
 ad2:	4f 5f       	subi	r20, 0xFF	; 255
 ad4:	5f 4f       	sbci	r21, 0xFF	; 255
 ad6:	a3 d2       	rcall	.+1350   	; 0x101e <__ultoa_invert>
 ad8:	48 2e       	mov	r4, r24
 ada:	5c 85       	ldd	r21, Y+12	; 0x0c
 adc:	45 1a       	sub	r4, r21
 ade:	8a 2d       	mov	r24, r10
 ae0:	8f 77       	andi	r24, 0x7F	; 127
 ae2:	38 2e       	mov	r3, r24
 ae4:	36 fe       	sbrs	r3, 6
 ae6:	0d c0       	rjmp	.+26     	; 0xb02 <__stack+0x203>
 ae8:	93 2d       	mov	r25, r3
 aea:	9e 7f       	andi	r25, 0xFE	; 254
 aec:	a9 2e       	mov	r10, r25
 aee:	4b 14       	cp	r4, r11
 af0:	58 f4       	brcc	.+22     	; 0xb08 <__stack+0x209>
 af2:	34 fe       	sbrs	r3, 4
 af4:	0b c0       	rjmp	.+22     	; 0xb0c <__stack+0x20d>
 af6:	32 fc       	sbrc	r3, 2
 af8:	09 c0       	rjmp	.+18     	; 0xb0c <__stack+0x20d>
 afa:	a3 2d       	mov	r26, r3
 afc:	ae 7e       	andi	r26, 0xEE	; 238
 afe:	aa 2e       	mov	r10, r26
 b00:	05 c0       	rjmp	.+10     	; 0xb0c <__stack+0x20d>
 b02:	14 2d       	mov	r17, r4
 b04:	a3 2c       	mov	r10, r3
 b06:	03 c0       	rjmp	.+6      	; 0xb0e <__stack+0x20f>
 b08:	14 2d       	mov	r17, r4
 b0a:	01 c0       	rjmp	.+2      	; 0xb0e <__stack+0x20f>
 b0c:	1b 2d       	mov	r17, r11
 b0e:	a4 fe       	sbrs	r10, 4
 b10:	0e c0       	rjmp	.+28     	; 0xb2e <__stack+0x22f>
 b12:	fe 01       	movw	r30, r28
 b14:	e4 0d       	add	r30, r4
 b16:	f1 1d       	adc	r31, r1
 b18:	80 81       	ld	r24, Z
 b1a:	80 33       	cpi	r24, 0x30	; 48
 b1c:	21 f4       	brne	.+8      	; 0xb26 <__stack+0x227>
 b1e:	ea 2d       	mov	r30, r10
 b20:	e9 7e       	andi	r30, 0xE9	; 233
 b22:	ae 2e       	mov	r10, r30
 b24:	08 c0       	rjmp	.+16     	; 0xb36 <__stack+0x237>
 b26:	a2 fe       	sbrs	r10, 2
 b28:	05 c0       	rjmp	.+10     	; 0xb34 <__stack+0x235>
 b2a:	1e 5f       	subi	r17, 0xFE	; 254
 b2c:	04 c0       	rjmp	.+8      	; 0xb36 <__stack+0x237>
 b2e:	8a 2d       	mov	r24, r10
 b30:	86 78       	andi	r24, 0x86	; 134
 b32:	09 f0       	breq	.+2      	; 0xb36 <__stack+0x237>
 b34:	1f 5f       	subi	r17, 0xFF	; 255
 b36:	a3 fc       	sbrc	r10, 3
 b38:	10 c0       	rjmp	.+32     	; 0xb5a <__stack+0x25b>
 b3a:	a0 fe       	sbrs	r10, 0
 b3c:	06 c0       	rjmp	.+12     	; 0xb4a <__stack+0x24b>
 b3e:	10 17       	cp	r17, r16
 b40:	80 f4       	brcc	.+32     	; 0xb62 <__stack+0x263>
 b42:	04 0d       	add	r16, r4
 b44:	b0 2e       	mov	r11, r16
 b46:	b1 1a       	sub	r11, r17
 b48:	0d c0       	rjmp	.+26     	; 0xb64 <__stack+0x265>
 b4a:	10 17       	cp	r17, r16
 b4c:	58 f4       	brcc	.+22     	; 0xb64 <__stack+0x265>
 b4e:	b6 01       	movw	r22, r12
 b50:	80 e2       	ldi	r24, 0x20	; 32
 b52:	90 e0       	ldi	r25, 0x00	; 0
 b54:	28 d2       	rcall	.+1104   	; 0xfa6 <fputc>
 b56:	1f 5f       	subi	r17, 0xFF	; 255
 b58:	f8 cf       	rjmp	.-16     	; 0xb4a <__stack+0x24b>
 b5a:	10 17       	cp	r17, r16
 b5c:	18 f4       	brcc	.+6      	; 0xb64 <__stack+0x265>
 b5e:	01 1b       	sub	r16, r17
 b60:	02 c0       	rjmp	.+4      	; 0xb66 <__stack+0x267>
 b62:	b4 2c       	mov	r11, r4
 b64:	00 e0       	ldi	r16, 0x00	; 0
 b66:	a4 fe       	sbrs	r10, 4
 b68:	0f c0       	rjmp	.+30     	; 0xb88 <__stack+0x289>
 b6a:	b6 01       	movw	r22, r12
 b6c:	80 e3       	ldi	r24, 0x30	; 48
 b6e:	90 e0       	ldi	r25, 0x00	; 0
 b70:	1a d2       	rcall	.+1076   	; 0xfa6 <fputc>
 b72:	a2 fe       	sbrs	r10, 2
 b74:	16 c0       	rjmp	.+44     	; 0xba2 <__stack+0x2a3>
 b76:	a1 fc       	sbrc	r10, 1
 b78:	03 c0       	rjmp	.+6      	; 0xb80 <__stack+0x281>
 b7a:	88 e7       	ldi	r24, 0x78	; 120
 b7c:	90 e0       	ldi	r25, 0x00	; 0
 b7e:	02 c0       	rjmp	.+4      	; 0xb84 <__stack+0x285>
 b80:	88 e5       	ldi	r24, 0x58	; 88
 b82:	90 e0       	ldi	r25, 0x00	; 0
 b84:	b6 01       	movw	r22, r12
 b86:	0c c0       	rjmp	.+24     	; 0xba0 <__stack+0x2a1>
 b88:	8a 2d       	mov	r24, r10
 b8a:	86 78       	andi	r24, 0x86	; 134
 b8c:	51 f0       	breq	.+20     	; 0xba2 <__stack+0x2a3>
 b8e:	a1 fe       	sbrs	r10, 1
 b90:	02 c0       	rjmp	.+4      	; 0xb96 <__stack+0x297>
 b92:	8b e2       	ldi	r24, 0x2B	; 43
 b94:	01 c0       	rjmp	.+2      	; 0xb98 <__stack+0x299>
 b96:	80 e2       	ldi	r24, 0x20	; 32
 b98:	a7 fc       	sbrc	r10, 7
 b9a:	8d e2       	ldi	r24, 0x2D	; 45
 b9c:	b6 01       	movw	r22, r12
 b9e:	90 e0       	ldi	r25, 0x00	; 0
 ba0:	02 d2       	rcall	.+1028   	; 0xfa6 <fputc>
 ba2:	4b 14       	cp	r4, r11
 ba4:	30 f4       	brcc	.+12     	; 0xbb2 <__stack+0x2b3>
 ba6:	b6 01       	movw	r22, r12
 ba8:	80 e3       	ldi	r24, 0x30	; 48
 baa:	90 e0       	ldi	r25, 0x00	; 0
 bac:	fc d1       	rcall	.+1016   	; 0xfa6 <fputc>
 bae:	ba 94       	dec	r11
 bb0:	f8 cf       	rjmp	.-16     	; 0xba2 <__stack+0x2a3>
 bb2:	4a 94       	dec	r4
 bb4:	e1 e0       	ldi	r30, 0x01	; 1
 bb6:	f0 e0       	ldi	r31, 0x00	; 0
 bb8:	ec 0f       	add	r30, r28
 bba:	fd 1f       	adc	r31, r29
 bbc:	e4 0d       	add	r30, r4
 bbe:	f1 1d       	adc	r31, r1
 bc0:	80 81       	ld	r24, Z
 bc2:	b6 01       	movw	r22, r12
 bc4:	90 e0       	ldi	r25, 0x00	; 0
 bc6:	ef d1       	rcall	.+990    	; 0xfa6 <fputc>
 bc8:	41 10       	cpse	r4, r1
 bca:	f3 cf       	rjmp	.-26     	; 0xbb2 <__stack+0x2b3>
 bcc:	00 23       	and	r16, r16
 bce:	09 f4       	brne	.+2      	; 0xbd2 <__stack+0x2d3>
 bd0:	3c ce       	rjmp	.-904    	; 0x84a <__DATA_REGION_LENGTH__+0x4a>
 bd2:	b6 01       	movw	r22, r12
 bd4:	80 e2       	ldi	r24, 0x20	; 32
 bd6:	90 e0       	ldi	r25, 0x00	; 0
 bd8:	e6 d1       	rcall	.+972    	; 0xfa6 <fputc>
 bda:	01 50       	subi	r16, 0x01	; 1
 bdc:	f7 cf       	rjmp	.-18     	; 0xbcc <__stack+0x2cd>
 bde:	f6 01       	movw	r30, r12
 be0:	87 81       	ldd	r24, Z+7	; 0x07
 be2:	90 85       	ldd	r25, Z+8	; 0x08
 be4:	02 c0       	rjmp	.+4      	; 0xbea <__stack+0x2eb>
 be6:	8f ef       	ldi	r24, 0xFF	; 255
 be8:	9f ef       	ldi	r25, 0xFF	; 255
 bea:	62 96       	adiw	r28, 0x12	; 18
 bec:	0f b6       	in	r0, 0x3f	; 63
 bee:	f8 94       	cli
 bf0:	de bf       	out	0x3e, r29	; 62
 bf2:	0f be       	out	0x3f, r0	; 63
 bf4:	cd bf       	out	0x3d, r28	; 61
 bf6:	df 91       	pop	r29
 bf8:	cf 91       	pop	r28
 bfa:	1f 91       	pop	r17
 bfc:	0f 91       	pop	r16
 bfe:	ff 90       	pop	r15
 c00:	ef 90       	pop	r14
 c02:	df 90       	pop	r13
 c04:	cf 90       	pop	r12
 c06:	bf 90       	pop	r11
 c08:	af 90       	pop	r10
 c0a:	9f 90       	pop	r9
 c0c:	8f 90       	pop	r8
 c0e:	7f 90       	pop	r7
 c10:	6f 90       	pop	r6
 c12:	4f 90       	pop	r4
 c14:	3f 90       	pop	r3
 c16:	2f 90       	pop	r2
 c18:	08 95       	ret

Disassembly of section .text.avrlibc:

000010da <strnlen>:
    10da:	cf 92       	push	r12
    10dc:	df 92       	push	r13
    10de:	ef 92       	push	r14
    10e0:	6b 01       	movw	r12, r22
    10e2:	e8 2e       	mov	r14, r24
    10e4:	a8 2f       	mov	r26, r24
    10e6:	cb 01       	movw	r24, r22
    10e8:	41 15       	cp	r20, r1
    10ea:	51 05       	cpc	r21, r1
    10ec:	31 f4       	brne	.+12     	; 0x10fa <strnlen+0x20>
    10ee:	8c 19       	sub	r24, r12
    10f0:	9d 09       	sbc	r25, r13
    10f2:	ef 90       	pop	r14
    10f4:	df 90       	pop	r13
    10f6:	cf 90       	pop	r12
    10f8:	08 95       	ret
    10fa:	fc 01       	movw	r30, r24
    10fc:	24 91       	lpm	r18, Z
    10fe:	a7 fd       	sbrc	r26, 7
    1100:	20 81       	ld	r18, Z
    1102:	22 23       	and	r18, r18
    1104:	a1 f3       	breq	.-24     	; 0x10ee <strnlen+0x14>
    1106:	01 96       	adiw	r24, 0x01	; 1
    1108:	a1 1d       	adc	r26, r1
    110a:	41 50       	subi	r20, 0x01	; 1
    110c:	51 09       	sbc	r21, r1
    110e:	ec cf       	rjmp	.-40     	; 0x10e8 <strnlen+0xe>

Disassembly of section .text.avrlibc:

00000fa6 <fputc>:
     fa6:	0f 93       	push	r16
     fa8:	1f 93       	push	r17
     faa:	cf 93       	push	r28
     fac:	df 93       	push	r29
     fae:	fb 01       	movw	r30, r22
     fb0:	24 81       	ldd	r18, Z+4	; 0x04
     fb2:	21 fd       	sbrc	r18, 1
     fb4:	03 c0       	rjmp	.+6      	; 0xfbc <fputc+0x16>
     fb6:	8f ef       	ldi	r24, 0xFF	; 255
     fb8:	9f ef       	ldi	r25, 0xFF	; 255
     fba:	2c c0       	rjmp	.+88     	; 0x1014 <fputc+0x6e>
     fbc:	22 ff       	sbrs	r18, 2
     fbe:	16 c0       	rjmp	.+44     	; 0xfec <fputc+0x46>
     fc0:	47 81       	ldd	r20, Z+7	; 0x07
     fc2:	50 85       	ldd	r21, Z+8	; 0x08
     fc4:	25 81       	ldd	r18, Z+5	; 0x05
     fc6:	36 81       	ldd	r19, Z+6	; 0x06
     fc8:	42 17       	cp	r20, r18
     fca:	53 07       	cpc	r21, r19
     fcc:	44 f4       	brge	.+16     	; 0xfde <fputc+0x38>
     fce:	a0 81       	ld	r26, Z
     fd0:	b1 81       	ldd	r27, Z+1	; 0x01
     fd2:	9d 01       	movw	r18, r26
     fd4:	2f 5f       	subi	r18, 0xFF	; 255
     fd6:	3f 4f       	sbci	r19, 0xFF	; 255
     fd8:	31 83       	std	Z+1, r19	; 0x01
     fda:	20 83       	st	Z, r18
     fdc:	8c 93       	st	X, r24
     fde:	27 81       	ldd	r18, Z+7	; 0x07
     fe0:	30 85       	ldd	r19, Z+8	; 0x08
     fe2:	2f 5f       	subi	r18, 0xFF	; 255
     fe4:	3f 4f       	sbci	r19, 0xFF	; 255
     fe6:	30 87       	std	Z+8, r19	; 0x08
     fe8:	27 83       	std	Z+7, r18	; 0x07
     fea:	14 c0       	rjmp	.+40     	; 0x1014 <fputc+0x6e>
     fec:	8b 01       	movw	r16, r22
     fee:	ec 01       	movw	r28, r24
     ff0:	fb 01       	movw	r30, r22
     ff2:	01 84       	ldd	r0, Z+9	; 0x09
     ff4:	f2 85       	ldd	r31, Z+10	; 0x0a
     ff6:	e0 2d       	mov	r30, r0
     ff8:	09 95       	icall
     ffa:	89 2b       	or	r24, r25
     ffc:	e1 f6       	brne	.-72     	; 0xfb6 <fputc+0x10>
     ffe:	d8 01       	movw	r26, r16
    1000:	17 96       	adiw	r26, 0x07	; 7
    1002:	8d 91       	ld	r24, X+
    1004:	9c 91       	ld	r25, X
    1006:	18 97       	sbiw	r26, 0x08	; 8
    1008:	01 96       	adiw	r24, 0x01	; 1
    100a:	18 96       	adiw	r26, 0x08	; 8
    100c:	9c 93       	st	X, r25
    100e:	8e 93       	st	-X, r24
    1010:	17 97       	sbiw	r26, 0x07	; 7
    1012:	ce 01       	movw	r24, r28
    1014:	df 91       	pop	r29
    1016:	cf 91       	pop	r28
    1018:	1f 91       	pop	r17
    101a:	0f 91       	pop	r16
    101c:	08 95       	ret

Disassembly of section .text.avrlibc:

0000101e <__ultoa_invert>:
    101e:	fa 01       	movw	r30, r20
    1020:	aa 27       	eor	r26, r26
    1022:	28 30       	cpi	r18, 0x08	; 8
    1024:	51 f1       	breq	.+84     	; 0x107a <__ultoa_invert+0x5c>
    1026:	20 31       	cpi	r18, 0x10	; 16
    1028:	81 f1       	breq	.+96     	; 0x108a <__ultoa_invert+0x6c>
    102a:	e8 94       	clt
    102c:	6f 93       	push	r22
    102e:	6e 7f       	andi	r22, 0xFE	; 254
    1030:	6e 5f       	subi	r22, 0xFE	; 254
    1032:	7f 4f       	sbci	r23, 0xFF	; 255
    1034:	8f 4f       	sbci	r24, 0xFF	; 255
    1036:	9f 4f       	sbci	r25, 0xFF	; 255
    1038:	af 4f       	sbci	r26, 0xFF	; 255
    103a:	b1 e0       	ldi	r27, 0x01	; 1
    103c:	3e d0       	rcall	.+124    	; 0x10ba <__ultoa_invert+0x9c>
    103e:	b4 e0       	ldi	r27, 0x04	; 4
    1040:	3c d0       	rcall	.+120    	; 0x10ba <__ultoa_invert+0x9c>
    1042:	67 0f       	add	r22, r23
    1044:	78 1f       	adc	r23, r24
    1046:	89 1f       	adc	r24, r25
    1048:	9a 1f       	adc	r25, r26
    104a:	a1 1d       	adc	r26, r1
    104c:	68 0f       	add	r22, r24
    104e:	79 1f       	adc	r23, r25
    1050:	8a 1f       	adc	r24, r26
    1052:	91 1d       	adc	r25, r1
    1054:	a1 1d       	adc	r26, r1
    1056:	6a 0f       	add	r22, r26
    1058:	71 1d       	adc	r23, r1
    105a:	81 1d       	adc	r24, r1
    105c:	91 1d       	adc	r25, r1
    105e:	a1 1d       	adc	r26, r1
    1060:	20 d0       	rcall	.+64     	; 0x10a2 <__ultoa_invert+0x84>
    1062:	09 f4       	brne	.+2      	; 0x1066 <__ultoa_invert+0x48>
    1064:	68 94       	set
    1066:	3f 91       	pop	r19
    1068:	2a e0       	ldi	r18, 0x0A	; 10
    106a:	26 9f       	mul	r18, r22
    106c:	11 24       	eor	r1, r1
    106e:	30 19       	sub	r19, r0
    1070:	30 5d       	subi	r19, 0xD0	; 208
    1072:	31 93       	st	Z+, r19
    1074:	de f6       	brtc	.-74     	; 0x102c <__ultoa_invert+0xe>
    1076:	cf 01       	movw	r24, r30
    1078:	08 95       	ret
    107a:	46 2f       	mov	r20, r22
    107c:	47 70       	andi	r20, 0x07	; 7
    107e:	40 5d       	subi	r20, 0xD0	; 208
    1080:	41 93       	st	Z+, r20
    1082:	b3 e0       	ldi	r27, 0x03	; 3
    1084:	0f d0       	rcall	.+30     	; 0x10a4 <__ultoa_invert+0x86>
    1086:	c9 f7       	brne	.-14     	; 0x107a <__ultoa_invert+0x5c>
    1088:	f6 cf       	rjmp	.-20     	; 0x1076 <__ultoa_invert+0x58>
    108a:	46 2f       	mov	r20, r22
    108c:	4f 70       	andi	r20, 0x0F	; 15
    108e:	40 5d       	subi	r20, 0xD0	; 208
    1090:	4a 33       	cpi	r20, 0x3A	; 58
    1092:	18 f0       	brcs	.+6      	; 0x109a <__ultoa_invert+0x7c>
    1094:	49 5d       	subi	r20, 0xD9	; 217
    1096:	31 fd       	sbrc	r19, 1
    1098:	40 52       	subi	r20, 0x20	; 32
    109a:	41 93       	st	Z+, r20
    109c:	02 d0       	rcall	.+4      	; 0x10a2 <__ultoa_invert+0x84>
    109e:	a9 f7       	brne	.-22     	; 0x108a <__ultoa_invert+0x6c>
    10a0:	ea cf       	rjmp	.-44     	; 0x1076 <__ultoa_invert+0x58>
    10a2:	b4 e0       	ldi	r27, 0x04	; 4
    10a4:	a6 95       	lsr	r26
    10a6:	97 95       	ror	r25
    10a8:	87 95       	ror	r24
    10aa:	77 95       	ror	r23
    10ac:	67 95       	ror	r22
    10ae:	ba 95       	dec	r27
    10b0:	c9 f7       	brne	.-14     	; 0x10a4 <__ultoa_invert+0x86>
    10b2:	00 97       	sbiw	r24, 0x00	; 0
    10b4:	61 05       	cpc	r22, r1
    10b6:	71 05       	cpc	r23, r1
    10b8:	08 95       	ret
    10ba:	9b 01       	movw	r18, r22
    10bc:	ac 01       	movw	r20, r24
    10be:	0a 2e       	mov	r0, r26
    10c0:	06 94       	lsr	r0
    10c2:	57 95       	ror	r21
    10c4:	47 95       	ror	r20
    10c6:	37 95       	ror	r19
    10c8:	27 95       	ror	r18
    10ca:	ba 95       	dec	r27
    10cc:	c9 f7       	brne	.-14     	; 0x10c0 <__ultoa_invert+0xa2>
    10ce:	62 0f       	add	r22, r18
    10d0:	73 1f       	adc	r23, r19
    10d2:	84 1f       	adc	r24, r20
    10d4:	95 1f       	adc	r25, r21
    10d6:	a0 1d       	adc	r26, r0
    10d8:	08 95       	ret

Disassembly of section .text.libgcc.prologue:

00000c50 <__prologue_saves__>:
 c50:	2f 92       	push	r2
 c52:	3f 92       	push	r3
 c54:	4f 92       	push	r4
 c56:	5f 92       	push	r5
 c58:	6f 92       	push	r6
 c5a:	7f 92       	push	r7
 c5c:	8f 92       	push	r8
 c5e:	9f 92       	push	r9
 c60:	af 92       	push	r10
 c62:	bf 92       	push	r11
 c64:	cf 92       	push	r12
 c66:	df 92       	push	r13
 c68:	ef 92       	push	r14
 c6a:	ff 92       	push	r15
 c6c:	0f 93       	push	r16
 c6e:	1f 93       	push	r17
 c70:	cf 93       	push	r28
 c72:	df 93       	push	r29
 c74:	cd b7       	in	r28, 0x3d	; 61
 c76:	de b7       	in	r29, 0x3e	; 62
 c78:	ca 1b       	sub	r28, r26
 c7a:	db 0b       	sbc	r29, r27
 c7c:	0f b6       	in	r0, 0x3f	; 63
 c7e:	f8 94       	cli
 c80:	de bf       	out	0x3e, r29	; 62
 c82:	0f be       	out	0x3f, r0	; 63
 c84:	cd bf       	out	0x3d, r28	; 61
 c86:	09 94       	ijmp

Disassembly of section .text.libgcc.prologue:

00000c1a <__epilogue_restores__>:
 c1a:	2a 88       	ldd	r2, Y+18	; 0x12
 c1c:	39 88       	ldd	r3, Y+17	; 0x11
 c1e:	48 88       	ldd	r4, Y+16	; 0x10
 c20:	5f 84       	ldd	r5, Y+15	; 0x0f
 c22:	6e 84       	ldd	r6, Y+14	; 0x0e
 c24:	7d 84       	ldd	r7, Y+13	; 0x0d
 c26:	8c 84       	ldd	r8, Y+12	; 0x0c
 c28:	9b 84       	ldd	r9, Y+11	; 0x0b
 c2a:	aa 84       	ldd	r10, Y+10	; 0x0a
 c2c:	b9 84       	ldd	r11, Y+9	; 0x09
 c2e:	c8 84       	ldd	r12, Y+8	; 0x08
 c30:	df 80       	ldd	r13, Y+7	; 0x07
 c32:	ee 80       	ldd	r14, Y+6	; 0x06
 c34:	fd 80       	ldd	r15, Y+5	; 0x05
 c36:	0c 81       	ldd	r16, Y+4	; 0x04
 c38:	1b 81       	ldd	r17, Y+3	; 0x03
 c3a:	aa 81       	ldd	r26, Y+2	; 0x02
 c3c:	b9 81       	ldd	r27, Y+1	; 0x01
 c3e:	ce 0f       	add	r28, r30
 c40:	d1 1d       	adc	r29, r1
 c42:	0f b6       	in	r0, 0x3f	; 63
 c44:	f8 94       	cli
 c46:	de bf       	out	0x3e, r29	; 62
 c48:	0f be       	out	0x3f, r0	; 63
 c4a:	cd bf       	out	0x3d, r28	; 61
 c4c:	ed 01       	movw	r28, r26
 c4e:	08 95       	ret
